	.cpu cortex-m4
	.eabi_attribute 27, 1
	.eabi_attribute 28, 1
	.eabi_attribute 20, 1
	.eabi_attribute 21, 1
	.eabi_attribute 23, 3
	.eabi_attribute 24, 1
	.eabi_attribute 25, 1
	.eabi_attribute 26, 1
	.eabi_attribute 30, 1
	.eabi_attribute 34, 1
	.eabi_attribute 18, 4
	.file	"ff.c"
	.text
.Ltext0:
	.section	.text.ld_word,"ax",%progbits
	.align	1
	.syntax unified
	.thumb
	.thumb_func
	.fpu fpv4-sp-d16
	.type	ld_word, %function
ld_word:
.LVL0:
.LFB0:
	.file 1 "E:\\dev\\nRF5_SDK_153\\nRF5_SDK_15.3.0_59ac345\\external\\fatfs\\src\\ff.c"
	.loc 1 603 1 view -0
	@ args = 0, pretend = 0, frame = 0
	@ frame_needed = 0, uses_anonymous_args = 0
	@ link register save eliminated.
	.loc 1 604 2 view .LVU1
	.loc 1 606 2 view .LVU2
	.loc 1 606 10 is_stmt 0 view .LVU3
	ldrb	r2, [r0, #1]	@ zero_extendqisi2
.LVL1:
	.loc 1 607 2 is_stmt 1 view .LVU4
	.loc 1 607 20 is_stmt 0 view .LVU5
	ldrb	r0, [r0]	@ zero_extendqisi2
.LVL2:
	.loc 1 608 2 is_stmt 1 view .LVU6
	.loc 1 609 1 is_stmt 0 view .LVU7
	orr	r0, r0, r2, lsl #8
.LVL3:
	.loc 1 609 1 view .LVU8
	bx	lr
.LFE0:
	.size	ld_word, .-ld_word
	.section	.text.ld_dword,"ax",%progbits
	.align	1
	.syntax unified
	.thumb
	.thumb_func
	.fpu fpv4-sp-d16
	.type	ld_dword, %function
ld_dword:
.LVL4:
.LFB1:
	.loc 1 613 1 is_stmt 1 view -0
	@ args = 0, pretend = 0, frame = 0
	@ frame_needed = 0, uses_anonymous_args = 0
	@ link register save eliminated.
	.loc 1 614 2 view .LVU10
	.loc 1 616 2 view .LVU11
	.loc 1 616 10 is_stmt 0 view .LVU12
	ldrb	r2, [r0, #3]	@ zero_extendqisi2
.LVL5:
	.loc 1 617 2 is_stmt 1 view .LVU13
	.loc 1 617 20 is_stmt 0 view .LVU14
	ldrb	r3, [r0, #2]	@ zero_extendqisi2
	.loc 1 617 5 view .LVU15
	orr	r2, r3, r2, lsl #8
.LVL6:
	.loc 1 618 2 is_stmt 1 view .LVU16
	.loc 1 618 20 is_stmt 0 view .LVU17
	ldrb	r3, [r0, #1]	@ zero_extendqisi2
	.loc 1 618 5 view .LVU18
	orr	r3, r3, r2, lsl #8
.LVL7:
	.loc 1 619 2 is_stmt 1 view .LVU19
	.loc 1 619 20 is_stmt 0 view .LVU20
	ldrb	r0, [r0]	@ zero_extendqisi2
.LVL8:
	.loc 1 620 2 is_stmt 1 view .LVU21
	.loc 1 621 1 is_stmt 0 view .LVU22
	orr	r0, r0, r3, lsl #8
.LVL9:
	.loc 1 621 1 view .LVU23
	bx	lr
.LFE1:
	.size	ld_dword, .-ld_dword
	.section	.text.st_word,"ax",%progbits
	.align	1
	.syntax unified
	.thumb
	.thumb_func
	.fpu fpv4-sp-d16
	.type	st_word, %function
st_word:
.LVL10:
.LFB2:
	.loc 1 644 1 is_stmt 1 view -0
	@ args = 0, pretend = 0, frame = 0
	@ frame_needed = 0, uses_anonymous_args = 0
	@ link register save eliminated.
	.loc 1 645 2 view .LVU25
	.loc 1 645 9 is_stmt 0 view .LVU26
	strb	r1, [r0]
	.loc 1 645 22 is_stmt 1 view .LVU27
.LVL11:
	.loc 1 646 2 view .LVU28
	.loc 1 646 11 is_stmt 0 view .LVU29
	lsrs	r1, r1, #8
.LVL12:
	.loc 1 646 9 view .LVU30
	strb	r1, [r0, #1]
	.loc 1 647 1 view .LVU31
	bx	lr
.LFE2:
	.size	st_word, .-st_word
	.section	.text.st_dword,"ax",%progbits
	.align	1
	.syntax unified
	.thumb
	.thumb_func
	.fpu fpv4-sp-d16
	.type	st_dword, %function
st_dword:
.LVL13:
.LFB3:
	.loc 1 651 1 is_stmt 1 view -0
	@ args = 0, pretend = 0, frame = 0
	@ frame_needed = 0, uses_anonymous_args = 0
	@ link register save eliminated.
	.loc 1 652 2 view .LVU33
	.loc 1 652 9 is_stmt 0 view .LVU34
	strb	r1, [r0]
	.loc 1 652 22 is_stmt 1 view .LVU35
.LVL14:
	.loc 1 653 2 view .LVU36
	.loc 1 653 11 is_stmt 0 view .LVU37
	ubfx	r3, r1, #8, #8
	.loc 1 653 9 view .LVU38
	strb	r3, [r0, #1]
	.loc 1 653 22 is_stmt 1 view .LVU39
.LVL15:
	.loc 1 654 2 view .LVU40
	.loc 1 654 11 is_stmt 0 view .LVU41
	ubfx	r3, r1, #16, #8
	.loc 1 654 9 view .LVU42
	strb	r3, [r0, #2]
	.loc 1 654 22 is_stmt 1 view .LVU43
.LVL16:
	.loc 1 655 2 view .LVU44
	.loc 1 655 11 is_stmt 0 view .LVU45
	lsrs	r1, r1, #24
.LVL17:
	.loc 1 655 9 view .LVU46
	strb	r1, [r0, #3]
	.loc 1 656 1 view .LVU47
	bx	lr
.LFE3:
	.size	st_dword, .-st_dword
	.section	.text.mem_cpy,"ax",%progbits
	.align	1
	.syntax unified
	.thumb
	.thumb_func
	.fpu fpv4-sp-d16
	.type	mem_cpy, %function
mem_cpy:
.LVL18:
.LFB4:
	.loc 1 682 53 is_stmt 1 view -0
	@ args = 0, pretend = 0, frame = 0
	@ frame_needed = 0, uses_anonymous_args = 0
	@ link register save eliminated.
	.loc 1 683 2 view .LVU49
	.loc 1 684 2 view .LVU50
	.loc 1 686 2 view .LVU51
	.loc 1 686 5 is_stmt 0 view .LVU52
	mov	r3, r2
	cbz	r2, .L5
.LVL19:
.L7:
	.loc 1 687 3 is_stmt 1 discriminator 1 view .LVU53
	.loc 1 687 6 discriminator 1 view .LVU54
	.loc 1 687 13 is_stmt 0 discriminator 1 view .LVU55
	ldrb	r2, [r1], #1	@ zero_extendqisi2
.LVL20:
	.loc 1 687 11 discriminator 1 view .LVU56
	strb	r2, [r0], #1
.LVL21:
	.loc 1 687 3 discriminator 1 view .LVU57
	subs	r3, r3, #1
.LVL22:
	.loc 1 687 3 discriminator 1 view .LVU58
	bne	.L7
.LVL23:
.L5:
	.loc 1 689 1 view .LVU59
	bx	lr
.LFE4:
	.size	mem_cpy, .-mem_cpy
	.section	.text.mem_set,"ax",%progbits
	.align	1
	.syntax unified
	.thumb
	.thumb_func
	.fpu fpv4-sp-d16
	.type	mem_set, %function
mem_set:
.LFB5:
	.loc 1 693 45 is_stmt 1 view -0
	@ args = 0, pretend = 0, frame = 0
	@ frame_needed = 0, uses_anonymous_args = 0
	@ link register save eliminated.
.LVL24:
.L9:
	.loc 1 696 2 discriminator 1 view .LVU61
	.loc 1 696 5 discriminator 1 view .LVU62
	.loc 1 696 10 is_stmt 0 discriminator 1 view .LVU63
	strb	r1, [r0], #1
.LVL25:
	.loc 1 696 2 discriminator 1 view .LVU64
	subs	r2, r2, #1
.LVL26:
	.loc 1 696 2 discriminator 1 view .LVU65
	bne	.L9
	.loc 1 697 1 view .LVU66
	bx	lr
.LFE5:
	.size	mem_set, .-mem_set
	.section	.text.mem_cmp,"ax",%progbits
	.align	1
	.syntax unified
	.thumb
	.thumb_func
	.fpu fpv4-sp-d16
	.type	mem_cmp, %function
mem_cmp:
.LFB6:
	.loc 1 701 58 is_stmt 1 view -0
	@ args = 0, pretend = 0, frame = 0
	@ frame_needed = 0, uses_anonymous_args = 0
	@ link register save eliminated.
.LVL27:
	.loc 1 701 58 is_stmt 0 view .LVU68
	push	{r4}
.LCFI0:
.LVL28:
.L12:
	.loc 1 705 2 is_stmt 1 discriminator 2 view .LVU69
	.loc 1 706 3 discriminator 2 view .LVU70
	.loc 1 706 7 is_stmt 0 discriminator 2 view .LVU71
	ldrb	r3, [r0], #1	@ zero_extendqisi2
.LVL29:
	.loc 1 706 14 discriminator 2 view .LVU72
	ldrb	r4, [r1], #1	@ zero_extendqisi2
.LVL30:
	.loc 1 706 5 discriminator 2 view .LVU73
	subs	r3, r3, r4
.LVL31:
	.loc 1 707 2 discriminator 2 view .LVU74
	subs	r2, r2, #1
.LVL32:
	.loc 1 707 2 discriminator 2 view .LVU75
	beq	.L10
	.loc 1 707 17 discriminator 1 view .LVU76
	cmp	r3, #0
	beq	.L12
.L10:
	.loc 1 710 1 view .LVU77
	mov	r0, r3
.LVL33:
	.loc 1 710 1 view .LVU78
	ldr	r4, [sp], #4
.LCFI1:
	bx	lr
.LFE6:
	.size	mem_cmp, .-mem_cmp
	.section	.text.chk_chr,"ax",%progbits
	.align	1
	.syntax unified
	.thumb
	.thumb_func
	.fpu fpv4-sp-d16
	.type	chk_chr, %function
chk_chr:
.LVL34:
.LFB7:
	.loc 1 714 40 is_stmt 1 view -0
	@ args = 0, pretend = 0, frame = 0
	@ frame_needed = 0, uses_anonymous_args = 0
	@ link register save eliminated.
	.loc 1 715 2 view .LVU80
.L15:
	.loc 1 715 9 is_stmt 0 discriminator 1 view .LVU81
	ldrb	r3, [r0]	@ zero_extendqisi2
	.loc 1 715 8 discriminator 1 view .LVU82
	cbz	r3, .L16
	.loc 1 715 14 discriminator 2 view .LVU83
	cmp	r3, r1
	beq	.L16
	.loc 1 715 30 is_stmt 1 discriminator 3 view .LVU84
	.loc 1 715 33 is_stmt 0 discriminator 3 view .LVU85
	adds	r0, r0, #1
.LVL35:
	.loc 1 715 33 discriminator 3 view .LVU86
	b	.L15
.L16:
	.loc 1 716 2 is_stmt 1 view .LVU87
	.loc 1 717 1 is_stmt 0 view .LVU88
	mov	r0, r3
.LVL36:
	.loc 1 717 1 view .LVU89
	bx	lr
.LFE7:
	.size	chk_chr, .-chk_chr
	.section	.text.clust2sect,"ax",%progbits
	.align	1
	.syntax unified
	.thumb
	.thumb_func
	.fpu fpv4-sp-d16
	.type	clust2sect, %function
clust2sect:
.LVL37:
.LFB11:
	.loc 1 972 1 is_stmt 1 view -0
	@ args = 0, pretend = 0, frame = 0
	@ frame_needed = 0, uses_anonymous_args = 0
	@ link register save eliminated.
	.loc 1 973 2 view .LVU91
	.loc 1 973 7 is_stmt 0 view .LVU92
	subs	r1, r1, #2
.LVL38:
	.loc 1 974 2 is_stmt 1 view .LVU93
	.loc 1 974 16 is_stmt 0 view .LVU94
	ldr	r3, [r0, #20]
	.loc 1 974 27 view .LVU95
	subs	r3, r3, #2
	.loc 1 974 5 view .LVU96
	cmp	r3, r1
	bls	.L20
	.loc 1 975 2 is_stmt 1 view .LVU97
	.loc 1 975 18 is_stmt 0 view .LVU98
	ldrh	r3, [r0, #10]
	.loc 1 975 30 view .LVU99
	ldr	r0, [r0, #40]
.LVL39:
	.loc 1 975 26 view .LVU100
	mla	r0, r1, r3, r0
	bx	lr
.LVL40:
.L20:
	.loc 1 974 39 view .LVU101
	movs	r0, #0
.LVL41:
	.loc 1 976 1 view .LVU102
	bx	lr
.LFE11:
	.size	clust2sect, .-clust2sect
	.section	.text.ld_clust,"ax",%progbits
	.align	1
	.syntax unified
	.thumb
	.thumb_func
	.fpu fpv4-sp-d16
	.type	ld_clust, %function
ld_clust:
.LVL42:
.LFB19:
	.loc 1 1593 1 is_stmt 1 view -0
	@ args = 0, pretend = 0, frame = 0
	@ frame_needed = 0, uses_anonymous_args = 0
	.loc 1 1593 1 is_stmt 0 view .LVU104
	push	{r4, r5, r6, lr}
.LCFI2:
	mov	r6, r0
	mov	r5, r1
	.loc 1 1594 2 is_stmt 1 view .LVU105
	.loc 1 1596 2 view .LVU106
	.loc 1 1596 7 is_stmt 0 view .LVU107
	add	r0, r1, #26
.LVL43:
	.loc 1 1596 7 view .LVU108
	bl	ld_word
.LVL44:
	.loc 1 1597 2 is_stmt 1 view .LVU109
	.loc 1 1597 8 is_stmt 0 view .LVU110
	ldrb	r3, [r6]	@ zero_extendqisi2
	.loc 1 1597 5 view .LVU111
	cmp	r3, #3
	beq	.L24
.LVL45:
.L21:
	.loc 1 1602 1 view .LVU112
	pop	{r4, r5, r6, pc}
.LVL46:
.L24:
	.loc 1 1602 1 view .LVU113
	mov	r4, r0
	.loc 1 1598 3 is_stmt 1 view .LVU114
	.loc 1 1598 16 is_stmt 0 view .LVU115
	add	r0, r5, #20
.LVL47:
	.loc 1 1598 16 view .LVU116
	bl	ld_word
.LVL48:
	.loc 1 1598 6 view .LVU117
	orr	r0, r4, r0, lsl #16
.LVL49:
	.loc 1 1601 2 is_stmt 1 view .LVU118
	.loc 1 1601 9 is_stmt 0 view .LVU119
	b	.L21
.LFE19:
	.size	ld_clust, .-ld_clust
	.section	.text.st_clust,"ax",%progbits
	.align	1
	.syntax unified
	.thumb
	.thumb_func
	.fpu fpv4-sp-d16
	.type	st_clust, %function
st_clust:
.LVL50:
.LFB20:
	.loc 1 1612 1 is_stmt 1 view -0
	@ args = 0, pretend = 0, frame = 0
	@ frame_needed = 0, uses_anonymous_args = 0
	.loc 1 1612 1 is_stmt 0 view .LVU121
	push	{r4, r5, r6, lr}
.LCFI3:
	mov	r6, r0
	mov	r4, r1
	mov	r5, r2
	.loc 1 1613 2 is_stmt 1 view .LVU122
	uxth	r1, r2
.LVL51:
	.loc 1 1613 2 is_stmt 0 view .LVU123
	add	r0, r4, #26
.LVL52:
	.loc 1 1613 2 view .LVU124
	bl	st_word
.LVL53:
	.loc 1 1614 2 is_stmt 1 view .LVU125
	.loc 1 1614 8 is_stmt 0 view .LVU126
	ldrb	r3, [r6]	@ zero_extendqisi2
	.loc 1 1614 5 view .LVU127
	cmp	r3, #3
	beq	.L28
.L25:
	.loc 1 1617 1 view .LVU128
	pop	{r4, r5, r6, pc}
.LVL54:
.L28:
	.loc 1 1615 3 is_stmt 1 view .LVU129
	lsrs	r1, r5, #16
	add	r0, r4, #20
	bl	st_word
.LVL55:
	.loc 1 1617 1 is_stmt 0 view .LVU130
	b	.L25
.LFE20:
	.size	st_clust, .-st_clust
	.section	.text.get_fileinfo,"ax",%progbits
	.align	1
	.syntax unified
	.thumb
	.thumb_func
	.fpu fpv4-sp-d16
	.type	get_fileinfo, %function
get_fileinfo:
.LVL56:
.LFB25:
	.loc 1 2400 1 is_stmt 1 view -0
	@ args = 0, pretend = 0, frame = 0
	@ frame_needed = 0, uses_anonymous_args = 0
	.loc 1 2401 2 view .LVU132
	.loc 1 2402 2 view .LVU133
	.loc 1 2403 2 view .LVU134
	.loc 1 2410 2 view .LVU135
	.loc 1 2410 16 is_stmt 0 view .LVU136
	movs	r3, #0
	strb	r3, [r1, #9]
	.loc 1 2411 2 is_stmt 1 view .LVU137
	.loc 1 2411 9 is_stmt 0 view .LVU138
	ldr	r3, [r0, #24]
	.loc 1 2411 5 view .LVU139
	cbz	r3, .L38
	.loc 1 2400 1 view .LVU140
	push	{r4, r5, r6, lr}
.LCFI4:
	.loc 1 2471 8 view .LVU141
	movs	r2, #0
	.loc 1 2471 4 view .LVU142
	mov	r3, r2
	b	.L31
.LVL57:
.L33:
	.loc 1 2476 3 is_stmt 1 view .LVU143
	.loc 1 2476 6 is_stmt 0 view .LVU144
	cmp	r4, #9
	beq	.L41
.L34:
	.loc 1 2477 3 is_stmt 1 view .LVU145
.LVL58:
	.loc 1 2477 19 is_stmt 0 view .LVU146
	adds	r5, r1, r2
	strb	r3, [r5, #9]
	.loc 1 2477 15 view .LVU147
	adds	r2, r2, #1
.LVL59:
.L32:
	.loc 1 2477 15 view .LVU148
	mov	r3, r4
.LVL60:
.L31:
	.loc 1 2472 8 view .LVU149
	cmp	r3, #10
	bhi	.L42
	.loc 1 2473 3 is_stmt 1 view .LVU150
	.loc 1 2473 16 is_stmt 0 view .LVU151
	ldr	r5, [r0, #28]
	.loc 1 2473 23 view .LVU152
	adds	r4, r3, #1
.LVL61:
	.loc 1 2473 5 view .LVU153
	ldrb	r3, [r5, r3]	@ zero_extendqisi2
.LVL62:
	.loc 1 2474 3 is_stmt 1 view .LVU154
	.loc 1 2474 6 is_stmt 0 view .LVU155
	cmp	r3, #32
	beq	.L32
	.loc 1 2475 3 is_stmt 1 view .LVU156
	.loc 1 2475 6 is_stmt 0 view .LVU157
	cmp	r3, #5
	bne	.L33
	.loc 1 2475 21 view .LVU158
	movs	r3, #229
.LVL63:
	.loc 1 2475 21 view .LVU159
	b	.L33
.LVL64:
.L41:
	.loc 1 2476 15 is_stmt 1 discriminator 1 view .LVU160
	.loc 1 2476 31 is_stmt 0 discriminator 1 view .LVU161
	adds	r5, r1, r2
	movs	r6, #46
	strb	r6, [r5, #9]
	.loc 1 2476 27 discriminator 1 view .LVU162
	adds	r2, r2, #1
.LVL65:
	.loc 1 2476 27 discriminator 1 view .LVU163
	b	.L34
.LVL66:
.L42:
	.loc 1 2476 27 discriminator 1 view .LVU164
	mov	r5, r1
	mov	r4, r0
	.loc 1 2479 2 is_stmt 1 view .LVU165
	.loc 1 2479 16 is_stmt 0 view .LVU166
	add	r2, r2, r1
.LVL67:
	.loc 1 2479 16 view .LVU167
	movs	r3, #0
.LVL68:
	.loc 1 2479 16 view .LVU168
	strb	r3, [r2, #9]
	.loc 1 2482 2 is_stmt 1 view .LVU169
	.loc 1 2482 19 is_stmt 0 view .LVU170
	ldr	r3, [r0, #28]
	.loc 1 2482 15 view .LVU171
	ldrb	r3, [r3, #11]	@ zero_extendqisi2
	strb	r3, [r1, #8]
	.loc 1 2483 2 is_stmt 1 view .LVU172
	.loc 1 2483 26 is_stmt 0 view .LVU173
	ldr	r0, [r0, #28]
.LVL69:
	.loc 1 2483 15 view .LVU174
	adds	r0, r0, #28
	bl	ld_dword
.LVL70:
	.loc 1 2483 13 view .LVU175
	str	r0, [r5]
	.loc 1 2484 2 is_stmt 1 view .LVU176
	.loc 1 2484 18 is_stmt 0 view .LVU177
	ldr	r0, [r4, #28]
	.loc 1 2484 7 view .LVU178
	adds	r0, r0, #22
	bl	ld_dword
.LVL71:
	.loc 1 2485 2 is_stmt 1 view .LVU179
	.loc 1 2485 13 is_stmt 0 view .LVU180
	strh	r0, [r5, #6]	@ movhi
	.loc 1 2485 25 is_stmt 1 view .LVU181
	.loc 1 2485 38 is_stmt 0 view .LVU182
	lsrs	r0, r0, #16
.LVL72:
	.loc 1 2485 36 view .LVU183
	strh	r0, [r5, #4]	@ movhi
	.loc 1 2486 1 view .LVU184
	pop	{r4, r5, r6, pc}
.LVL73:
.L38:
.LCFI5:
	.loc 1 2486 1 view .LVU185
	bx	lr
.LFE25:
	.size	get_fileinfo, .-get_fileinfo
	.section	.text.create_name,"ax",%progbits
	.align	1
	.syntax unified
	.thumb
	.thumb_func
	.fpu fpv4-sp-d16
	.type	create_name, %function
create_name:
.LVL74:
.LFB26:
	.loc 1 2574 1 is_stmt 1 view -0
	@ args = 0, pretend = 0, frame = 0
	@ frame_needed = 0, uses_anonymous_args = 0
	.loc 1 2574 1 is_stmt 0 view .LVU187
	push	{r3, r4, r5, r6, r7, r8, r9, r10, fp, lr}
.LCFI6:
	mov	r10, r0
	mov	fp, r1
	.loc 1 2694 2 is_stmt 1 view .LVU188
	.loc 1 2695 2 view .LVU189
	.loc 1 2696 2 view .LVU190
	.loc 1 2699 2 view .LVU191
	.loc 1 2699 4 is_stmt 0 view .LVU192
	ldr	r7, [r1]
.LVL75:
	.loc 1 2699 13 is_stmt 1 view .LVU193
	.loc 1 2699 17 is_stmt 0 view .LVU194
	add	r9, r0, #32
.LVL76:
	.loc 1 2700 2 is_stmt 1 view .LVU195
	movs	r2, #11
	movs	r1, #32
.LVL77:
	.loc 1 2700 2 is_stmt 0 view .LVU196
	mov	r0, r9
.LVL78:
	.loc 1 2700 2 view .LVU197
	bl	mem_set
.LVL79:
	.loc 1 2701 2 is_stmt 1 view .LVU198
	.loc 1 2701 14 view .LVU199
	.loc 1 2701 9 is_stmt 0 view .LVU200
	movs	r6, #0
	.loc 1 2701 5 view .LVU201
	mov	r3, r6
	.loc 1 2701 17 view .LVU202
	mov	r8, #8
	b	.L44
.LVL80:
.L49:
	.loc 1 2719 42 is_stmt 1 discriminator 4 view .LVU203
	.loc 1 2719 44 is_stmt 0 discriminator 4 view .LVU204
	adds	r5, r5, #1
.LVL81:
.L48:
	.loc 1 2719 12 discriminator 1 view .LVU205
	ldrb	r3, [r7, r5]	@ zero_extendqisi2
	.loc 1 2719 10 discriminator 1 view .LVU206
	cmp	r3, #47
	beq	.L49
	.loc 1 2719 24 discriminator 3 view .LVU207
	cmp	r3, #92
	beq	.L49
.L45:
	.loc 1 2747 2 is_stmt 1 view .LVU208
	.loc 1 2747 12 is_stmt 0 view .LVU209
	add	r5, r5, r7
.LVL82:
	.loc 1 2747 8 view .LVU210
	str	r5, [fp]
	.loc 1 2748 2 is_stmt 1 view .LVU211
	.loc 1 2748 5 is_stmt 0 view .LVU212
	cmp	r6, #0
	beq	.L65
	.loc 1 2750 2 is_stmt 1 view .LVU213
	.loc 1 2750 9 is_stmt 0 view .LVU214
	ldrb	r3, [r10, #32]	@ zero_extendqisi2
	.loc 1 2750 5 view .LVU215
	cmp	r3, #229
	beq	.L69
.L58:
	.loc 1 2751 2 is_stmt 1 view .LVU216
	.loc 1 2751 14 is_stmt 0 view .LVU217
	cmp	r4, #32
	bhi	.L66
	movs	r3, #4
.L59:
	.loc 1 2751 14 discriminator 4 view .LVU218
	strb	r3, [r10, #43]
	.loc 1 2753 2 is_stmt 1 discriminator 4 view .LVU219
	.loc 1 2753 9 is_stmt 0 discriminator 4 view .LVU220
	movs	r0, #0
	b	.L52
.LVL83:
.L70:
	.loc 1 2724 6 view .LVU221
	movs	r6, #8
.LVL84:
	.loc 1 2724 14 view .LVU222
	mov	r8, #11
.LVL85:
.L53:
	.loc 1 2724 14 view .LVU223
	mov	r3, r5
.LVL86:
.L44:
	.loc 1 2715 2 is_stmt 1 view .LVU224
	.loc 1 2716 3 view .LVU225
	.loc 1 2716 17 is_stmt 0 view .LVU226
	adds	r5, r3, #1
.LVL87:
	.loc 1 2716 5 view .LVU227
	ldrb	r4, [r7, r3]	@ zero_extendqisi2
.LVL88:
	.loc 1 2717 3 is_stmt 1 view .LVU228
	.loc 1 2717 6 is_stmt 0 view .LVU229
	cmp	r4, #32
	bls	.L45
	.loc 1 2718 3 is_stmt 1 view .LVU230
	.loc 1 2718 6 is_stmt 0 view .LVU231
	cmp	r4, #47
	beq	.L48
	.loc 1 2718 16 discriminator 1 view .LVU232
	cmp	r4, #92
	beq	.L48
	.loc 1 2722 3 is_stmt 1 view .LVU233
	.loc 1 2722 6 is_stmt 0 view .LVU234
	cmp	r4, #46
	beq	.L50
	.loc 1 2722 16 discriminator 1 view .LVU235
	cmp	r8, r6
	bhi	.L51
.L50:
	.loc 1 2723 4 is_stmt 1 view .LVU236
	.loc 1 2723 7 is_stmt 0 view .LVU237
	cmp	r8, #11
	beq	.L60
	.loc 1 2723 17 discriminator 2 view .LVU238
	cmp	r4, #46
	beq	.L70
	.loc 1 2723 37 view .LVU239
	movs	r0, #6
.LVL89:
.L52:
	.loc 1 2755 1 view .LVU240
	pop	{r3, r4, r5, r6, r7, r8, r9, r10, fp, pc}
.LVL90:
.L51:
	.loc 1 2727 3 is_stmt 1 view .LVU241
	.loc 1 2735 3 view .LVU242
	.loc 1 2736 3 view .LVU243
	.loc 1 2736 7 is_stmt 0 view .LVU244
	add	r2, r4, #127
	uxtb	r2, r2
	.loc 1 2736 6 view .LVU245
	cmp	r2, #30
	bls	.L54
	.loc 1 2736 7 discriminator 1 view .LVU246
	add	r2, r4, #32
	uxtb	r2, r2
	cmp	r2, #28
	bhi	.L55
.L54:
	.loc 1 2737 4 is_stmt 1 view .LVU247
	.loc 1 2737 18 is_stmt 0 view .LVU248
	adds	r3, r3, #2
.LVL91:
	.loc 1 2737 6 view .LVU249
	ldrb	r1, [r7, r5]	@ zero_extendqisi2
.LVL92:
	.loc 1 2738 4 is_stmt 1 view .LVU250
	.loc 1 2738 9 is_stmt 0 view .LVU251
	sub	r2, r1, #64
	uxtb	r2, r2
	.loc 1 2738 7 view .LVU252
	cmp	r2, #62
	bls	.L56
	.loc 1 2738 9 discriminator 1 view .LVU253
	eor	r2, r1, #128
	.loc 1 2738 8 discriminator 1 view .LVU254
	cmp	r2, #124
	bhi	.L62
.L56:
	.loc 1 2738 31 discriminator 4 view .LVU255
	add	r2, r8, #-1
	.loc 1 2738 20 discriminator 4 view .LVU256
	cmp	r2, r6
	bls	.L63
	.loc 1 2739 4 is_stmt 1 view .LVU257
	.loc 1 2739 9 is_stmt 0 view .LVU258
	adds	r2, r6, #1
.LVL93:
	.loc 1 2739 13 view .LVU259
	strb	r4, [r9, r6]
	.loc 1 2740 4 is_stmt 1 view .LVU260
.LVL94:
	.loc 1 2740 13 is_stmt 0 view .LVU261
	strb	r1, [r9, r2]
	adds	r6, r6, #2
.LVL95:
	.loc 1 2737 18 view .LVU262
	mov	r5, r3
	.loc 1 2740 13 view .LVU263
	b	.L53
.LVL96:
.L55:
	.loc 1 2742 4 is_stmt 1 view .LVU264
	.loc 1 2742 8 is_stmt 0 view .LVU265
	mov	r1, r4
	ldr	r0, .L71
	bl	chk_chr
.LVL97:
	.loc 1 2742 7 view .LVU266
	cbnz	r0, .L64
	.loc 1 2743 4 is_stmt 1 view .LVU267
	.loc 1 2743 8 is_stmt 0 view .LVU268
	sub	r3, r4, #97
	uxtb	r3, r3
	.loc 1 2743 7 view .LVU269
	cmp	r3, #25
	bhi	.L57
	.loc 1 2743 20 is_stmt 1 discriminator 1 view .LVU270
	.loc 1 2743 22 is_stmt 0 discriminator 1 view .LVU271
	subs	r4, r4, #32
.LVL98:
	.loc 1 2743 22 discriminator 1 view .LVU272
	uxtb	r4, r4
.LVL99:
.L57:
	.loc 1 2744 4 is_stmt 1 view .LVU273
	.loc 1 2744 13 is_stmt 0 view .LVU274
	strb	r4, [r9, r6]
	.loc 1 2744 9 view .LVU275
	adds	r6, r6, #1
.LVL100:
	.loc 1 2744 9 view .LVU276
	b	.L53
.LVL101:
.L69:
	.loc 1 2750 22 is_stmt 1 discriminator 1 view .LVU277
	.loc 1 2750 29 is_stmt 0 discriminator 1 view .LVU278
	movs	r3, #5
	strb	r3, [r10, #32]
	b	.L58
.L66:
	.loc 1 2751 14 view .LVU279
	movs	r3, #0
	b	.L59
.LVL102:
.L60:
	.loc 1 2723 37 view .LVU280
	movs	r0, #6
	b	.L52
.LVL103:
.L62:
	.loc 1 2738 43 view .LVU281
	movs	r0, #6
	b	.L52
.L63:
	.loc 1 2738 43 view .LVU282
	movs	r0, #6
	b	.L52
.LVL104:
.L64:
	.loc 1 2742 50 view .LVU283
	movs	r0, #6
	b	.L52
.LVL105:
.L65:
	.loc 1 2748 21 view .LVU284
	movs	r0, #6
	b	.L52
.L72:
	.align	2
.L71:
	.word	.LC0
.LFE26:
	.size	create_name, .-create_name
	.section	.text.get_ldnumber,"ax",%progbits
	.align	1
	.syntax unified
	.thumb
	.thumb_func
	.fpu fpv4-sp-d16
	.type	get_ldnumber, %function
get_ldnumber:
.LVL106:
.LFB28:
	.loc 1 2856 1 is_stmt 1 view -0
	@ args = 0, pretend = 0, frame = 0
	@ frame_needed = 0, uses_anonymous_args = 0
	@ link register save eliminated.
	.loc 1 2857 2 view .LVU286
	.loc 1 2858 2 view .LVU287
	.loc 1 2859 2 view .LVU288
	.loc 1 2868 2 view .LVU289
	.loc 1 2868 6 is_stmt 0 view .LVU290
	ldr	r1, [r0]
	.loc 1 2868 5 view .LVU291
	cbz	r1, .L88
	.loc 1 2869 11 view .LVU292
	mov	r2, r1
.L74:
.LVL107:
	.loc 1 2869 26 discriminator 1 view .LVU293
	ldrb	r3, [r2]	@ zero_extendqisi2
	.loc 1 2869 3 discriminator 1 view .LVU294
	cmp	r3, #32
	bls	.L76
	.loc 1 2869 56 discriminator 3 view .LVU295
	cmp	r3, #58
	beq	.L76
	.loc 1 2869 77 is_stmt 1 discriminator 4 view .LVU296
	.loc 1 2869 73 is_stmt 0 discriminator 4 view .LVU297
	adds	r2, r2, #1
.LVL108:
	.loc 1 2869 73 discriminator 4 view .LVU298
	b	.L74
.LVL109:
.L88:
	.loc 1 2859 6 view .LVU299
	mov	r3, #-1
	b	.L85
.LVL110:
.L76:
	.loc 1 2870 3 is_stmt 1 view .LVU300
	.loc 1 2870 6 is_stmt 0 view .LVU301
	cmp	r3, #58
	beq	.L89
	.loc 1 2900 7 view .LVU302
	movs	r3, #0
.LVL111:
.L85:
	.loc 1 2904 1 view .LVU303
	mov	r0, r3
.LVL112:
	.loc 1 2904 1 view .LVU304
	bx	lr
.LVL113:
.L89:
	.loc 1 2856 1 view .LVU305
	push	{r4}
.LCFI7:
	.loc 1 2871 4 is_stmt 1 view .LVU306
.LVL114:
	.loc 1 2872 4 view .LVU307
	.loc 1 2872 8 is_stmt 0 view .LVU308
	ldrb	r3, [r1], #1	@ zero_extendqisi2
.LVL115:
	.loc 1 2872 14 view .LVU309
	subs	r3, r3, #48
.LVL116:
	.loc 1 2873 4 is_stmt 1 view .LVU310
	.loc 1 2873 7 is_stmt 0 view .LVU311
	cmp	r3, #9
	bhi	.L81
	.loc 1 2873 15 discriminator 1 view .LVU312
	cmp	r2, r1
	beq	.L90
	.loc 1 2859 6 view .LVU313
	mov	r3, #-1
.LVL117:
	.loc 1 2859 6 view .LVU314
	b	.L73
.LVL118:
.L90:
	.loc 1 2874 5 is_stmt 1 view .LVU315
	.loc 1 2874 8 is_stmt 0 view .LVU316
	cbnz	r3, .L83
	.loc 1 2875 6 is_stmt 1 view .LVU317
.LVL119:
	.loc 1 2876 6 view .LVU318
	.loc 1 2876 12 is_stmt 0 view .LVU319
	adds	r2, r2, #1
.LVL120:
	.loc 1 2876 12 view .LVU320
	str	r2, [r0]
.LVL121:
	.loc 1 2876 12 view .LVU321
	b	.L73
.LVL122:
.L81:
	.loc 1 2859 6 view .LVU322
	mov	r3, #-1
.LVL123:
.L73:
	.loc 1 2904 1 view .LVU323
	mov	r0, r3
.LVL124:
	.loc 1 2904 1 view .LVU324
	ldr	r4, [sp], #4
.LCFI8:
	bx	lr
.LVL125:
.L83:
.LCFI9:
	.loc 1 2859 6 view .LVU325
	mov	r3, #-1
.LVL126:
	.loc 1 2895 4 is_stmt 1 view .LVU326
	.loc 1 2895 11 is_stmt 0 view .LVU327
	b	.L73
.LFE28:
	.size	get_ldnumber, .-get_ldnumber
	.section	.text.validate,"ax",%progbits
	.align	1
	.syntax unified
	.thumb
	.thumb_func
	.fpu fpv4-sp-d16
	.type	validate, %function
validate:
.LVL127:
.LFB31:
	.loc 1 3167 1 is_stmt 1 view -0
	@ args = 0, pretend = 0, frame = 0
	@ frame_needed = 0, uses_anonymous_args = 0
	.loc 1 3167 1 is_stmt 0 view .LVU329
	push	{r3, r4, r5, lr}
.LCFI10:
	mov	r5, r1
	.loc 1 3168 2 is_stmt 1 view .LVU330
	.loc 1 3171 2 view .LVU331
	.loc 1 3171 5 is_stmt 0 view .LVU332
	cbz	r0, .L92
	mov	r4, r0
	.loc 1 3171 18 discriminator 1 view .LVU333
	ldr	r3, [r0]
	.loc 1 3171 11 discriminator 1 view .LVU334
	cbz	r3, .L92
	.loc 1 3171 34 discriminator 2 view .LVU335
	ldrb	r2, [r3]	@ zero_extendqisi2
	.loc 1 3171 23 discriminator 2 view .LVU336
	cbz	r2, .L92
	.loc 1 3171 54 discriminator 3 view .LVU337
	ldrh	r1, [r3, #6]
.LVL128:
	.loc 1 3171 65 discriminator 3 view .LVU338
	ldrh	r2, [r0, #4]
	.loc 1 3171 44 discriminator 3 view .LVU339
	cmp	r1, r2
	beq	.L96
.LVL129:
.L92:
	.loc 1 3172 3 is_stmt 1 view .LVU340
	.loc 1 3172 7 is_stmt 0 view .LVU341
	movs	r3, #0
	str	r3, [r5]
	.loc 1 3173 3 is_stmt 1 view .LVU342
.LVL130:
	.loc 1 3173 7 is_stmt 0 view .LVU343
	movs	r0, #9
.LVL131:
.L94:
	.loc 1 3179 2 is_stmt 1 view .LVU344
	.loc 1 3180 1 is_stmt 0 view .LVU345
	pop	{r3, r4, r5, pc}
.LVL132:
.L96:
	.loc 1 3171 74 discriminator 4 view .LVU346
	ldrb	r0, [r3, #1]	@ zero_extendqisi2
.LVL133:
	.loc 1 3171 74 discriminator 4 view .LVU347
	bl	disk_status
.LVL134:
	.loc 1 3171 70 discriminator 4 view .LVU348
	ands	r0, r0, #1
	bne	.L92
	.loc 1 3175 3 is_stmt 1 view .LVU349
	.loc 1 3175 12 is_stmt 0 view .LVU350
	ldr	r3, [r4]
	.loc 1 3175 7 view .LVU351
	str	r3, [r5]
	.loc 1 3176 20 is_stmt 1 view .LVU352
	.loc 1 3177 3 view .LVU353
.LVL135:
	.loc 1 3177 3 is_stmt 0 view .LVU354
	b	.L94
.LFE31:
	.size	validate, .-validate
	.section	.text.sync_window,"ax",%progbits
	.align	1
	.syntax unified
	.thumb
	.thumb_func
	.fpu fpv4-sp-d16
	.type	sync_window, %function
sync_window:
.LVL136:
.LFB8:
	.loc 1 871 1 is_stmt 1 view -0
	@ args = 0, pretend = 0, frame = 0
	@ frame_needed = 0, uses_anonymous_args = 0
	.loc 1 871 1 is_stmt 0 view .LVU356
	push	{r4, r5, r6, r7, r8, lr}
.LCFI11:
	.loc 1 872 2 is_stmt 1 view .LVU357
	.loc 1 873 2 view .LVU358
	.loc 1 874 2 view .LVU359
.LVL137:
	.loc 1 877 2 view .LVU360
	.loc 1 877 8 is_stmt 0 view .LVU361
	ldrb	r5, [r0, #3]	@ zero_extendqisi2
	.loc 1 877 5 view .LVU362
	cbnz	r5, .L103
.LVL138:
.L98:
	.loc 1 891 2 is_stmt 1 view .LVU363
	.loc 1 892 1 is_stmt 0 view .LVU364
	mov	r0, r5
	pop	{r4, r5, r6, r7, r8, pc}
.LVL139:
.L103:
	.loc 1 892 1 view .LVU365
	mov	r4, r0
	.loc 1 878 3 is_stmt 1 view .LVU366
	.loc 1 878 9 is_stmt 0 view .LVU367
	ldr	r6, [r0, #44]
.LVL140:
	.loc 1 879 3 is_stmt 1 view .LVU368
	.loc 1 879 29 is_stmt 0 view .LVU369
	add	r8, r0, #48
	.loc 1 879 7 view .LVU370
	movs	r3, #1
	mov	r2, r6
	mov	r1, r8
	ldrb	r0, [r0, #1]	@ zero_extendqisi2
.LVL141:
	.loc 1 879 7 view .LVU371
	bl	disk_write
.LVL142:
	.loc 1 879 6 view .LVU372
	mov	r5, r0
	cbnz	r0, .L101
	.loc 1 882 4 is_stmt 1 view .LVU373
	.loc 1 882 14 is_stmt 0 view .LVU374
	movs	r3, #0
	strb	r3, [r4, #3]
	.loc 1 883 4 is_stmt 1 view .LVU375
	.loc 1 883 18 is_stmt 0 view .LVU376
	ldr	r3, [r4, #32]
	.loc 1 883 14 view .LVU377
	subs	r3, r6, r3
	.loc 1 883 32 view .LVU378
	ldr	r2, [r4, #24]
	.loc 1 883 7 view .LVU379
	cmp	r3, r2
	bcs	.L98
	.loc 1 884 5 is_stmt 1 view .LVU380
	.loc 1 884 17 is_stmt 0 view .LVU381
	ldrb	r7, [r4, #2]	@ zero_extendqisi2
.LVL143:
.L99:
	.loc 1 884 5 discriminator 1 view .LVU382
	cmp	r7, #1
	bls	.L98
	.loc 1 885 6 is_stmt 1 discriminator 3 view .LVU383
	.loc 1 885 17 is_stmt 0 discriminator 3 view .LVU384
	ldr	r3, [r4, #24]
	.loc 1 885 12 discriminator 3 view .LVU385
	add	r6, r6, r3
.LVL144:
	.loc 1 886 6 is_stmt 1 discriminator 3 view .LVU386
	movs	r3, #1
	mov	r2, r6
	mov	r1, r8
	ldrb	r0, [r4, #1]	@ zero_extendqisi2
	bl	disk_write
.LVL145:
	.loc 1 884 38 is_stmt 0 discriminator 3 view .LVU387
	subs	r7, r7, #1
.LVL146:
	.loc 1 884 38 discriminator 3 view .LVU388
	b	.L99
.LVL147:
.L101:
	.loc 1 880 8 view .LVU389
	movs	r5, #1
	b	.L98
.LFE8:
	.size	sync_window, .-sync_window
	.section	.text.move_window,"ax",%progbits
	.align	1
	.syntax unified
	.thumb
	.thumb_func
	.fpu fpv4-sp-d16
	.type	move_window, %function
move_window:
.LVL148:
.LFB9:
	.loc 1 901 1 is_stmt 1 view -0
	@ args = 0, pretend = 0, frame = 0
	@ frame_needed = 0, uses_anonymous_args = 0
	.loc 1 901 1 is_stmt 0 view .LVU391
	push	{r4, r5, r6, lr}
.LCFI12:
	.loc 1 902 2 is_stmt 1 view .LVU392
.LVL149:
	.loc 1 905 2 view .LVU393
	.loc 1 905 18 is_stmt 0 view .LVU394
	ldr	r3, [r0, #44]
	.loc 1 905 5 view .LVU395
	cmp	r3, r1
	bne	.L110
	.loc 1 902 10 view .LVU396
	movs	r6, #0
.LVL150:
.L105:
	.loc 1 917 2 is_stmt 1 view .LVU397
	.loc 1 918 1 is_stmt 0 view .LVU398
	mov	r0, r6
	pop	{r4, r5, r6, pc}
.LVL151:
.L110:
	.loc 1 918 1 view .LVU399
	mov	r4, r0
	mov	r5, r1
	.loc 1 907 3 is_stmt 1 view .LVU400
	.loc 1 907 9 is_stmt 0 view .LVU401
	bl	sync_window
.LVL152:
	.loc 1 909 3 is_stmt 1 view .LVU402
	.loc 1 909 6 is_stmt 0 view .LVU403
	mov	r6, r0
	cmp	r0, #0
	bne	.L105
	.loc 1 910 4 is_stmt 1 view .LVU404
	.loc 1 910 8 is_stmt 0 view .LVU405
	movs	r3, #1
	mov	r2, r5
	add	r1, r4, #48
	ldrb	r0, [r4, #1]	@ zero_extendqisi2
.LVL153:
	.loc 1 910 8 view .LVU406
	bl	disk_read
.LVL154:
	.loc 1 910 7 view .LVU407
	cbz	r0, .L106
	.loc 1 912 9 view .LVU408
	movs	r6, #1
	.loc 1 911 12 view .LVU409
	mov	r5, #-1
.LVL155:
.L106:
	.loc 1 914 4 is_stmt 1 view .LVU410
	.loc 1 914 16 is_stmt 0 view .LVU411
	str	r5, [r4, #44]
	b	.L105
.LFE9:
	.size	move_window, .-move_window
	.section	.text.check_fs,"ax",%progbits
	.align	1
	.syntax unified
	.thumb
	.thumb_func
	.fpu fpv4-sp-d16
	.type	check_fs, %function
check_fs:
.LVL156:
.LFB29:
	.loc 1 2918 1 is_stmt 1 view -0
	@ args = 0, pretend = 0, frame = 0
	@ frame_needed = 0, uses_anonymous_args = 0
	.loc 1 2918 1 is_stmt 0 view .LVU413
	push	{r3, r4, r5, lr}
.LCFI13:
	mov	r4, r0
	.loc 1 2919 2 is_stmt 1 view .LVU414
	.loc 1 2919 12 is_stmt 0 view .LVU415
	movs	r3, #0
	strb	r3, [r0, #3]
	.loc 1 2919 17 is_stmt 1 view .LVU416
	.loc 1 2919 29 is_stmt 0 view .LVU417
	mov	r3, #-1
	str	r3, [r0, #44]
	.loc 1 2920 2 is_stmt 1 view .LVU418
	.loc 1 2920 6 is_stmt 0 view .LVU419
	bl	move_window
.LVL157:
	.loc 1 2920 5 view .LVU420
	cbnz	r0, .L114
	mov	r5, r0
	.loc 1 2922 2 is_stmt 1 view .LVU421
	.loc 1 2922 6 is_stmt 0 view .LVU422
	addw	r0, r4, #558
	bl	ld_word
.LVL158:
	.loc 1 2922 5 view .LVU423
	movw	r3, #43605
	cmp	r0, r3
	bne	.L115
	.loc 1 2924 2 is_stmt 1 view .LVU424
	.loc 1 2924 13 is_stmt 0 view .LVU425
	ldrb	r3, [r4, #48]	@ zero_extendqisi2
	.loc 1 2924 5 view .LVU426
	cmp	r3, #233
	beq	.L113
	.loc 1 2924 66 discriminator 1 view .LVU427
	ldr	r3, [r4, #48]
	and	r3, r3, #16711935
	.loc 1 2924 34 discriminator 1 view .LVU428
	ldr	r2, .L118
	cmp	r3, r2
	beq	.L113
	.loc 1 2931 9 view .LVU429
	movs	r5, #2
	b	.L112
.L113:
	.loc 1 2925 3 is_stmt 1 view .LVU430
	.loc 1 2925 8 is_stmt 0 view .LVU431
	add	r0, r4, #102
	bl	ld_dword
.LVL159:
	.loc 1 2925 42 view .LVU432
	bic	r0, r0, #-16777216
	.loc 1 2925 6 view .LVU433
	ldr	r3, .L118+4
	cmp	r0, r3
	beq	.L112
	.loc 1 2926 3 is_stmt 1 view .LVU434
	.loc 1 2926 7 is_stmt 0 view .LVU435
	add	r0, r4, #130
	bl	ld_dword
.LVL160:
	.loc 1 2926 6 view .LVU436
	ldr	r3, .L118+8
	cmp	r0, r3
	beq	.L112
	.loc 1 2931 9 view .LVU437
	movs	r5, #2
	b	.L112
.L114:
	.loc 1 2920 45 view .LVU438
	movs	r5, #4
	b	.L112
.L115:
	.loc 1 2922 51 view .LVU439
	movs	r5, #3
.L112:
	.loc 1 2932 1 view .LVU440
	mov	r0, r5
	pop	{r3, r4, r5, pc}
.LVL161:
.L119:
	.loc 1 2932 1 view .LVU441
	.align	2
.L118:
	.word	9437419
	.word	5521734
	.word	861159750
.LFE29:
	.size	check_fs, .-check_fs
	.section	.text.find_volume,"ax",%progbits
	.align	1
	.syntax unified
	.thumb
	.thumb_func
	.fpu fpv4-sp-d16
	.type	find_volume, %function
find_volume:
.LVL162:
.LFB30:
	.loc 1 2947 1 is_stmt 1 view -0
	@ args = 0, pretend = 0, frame = 16
	@ frame_needed = 0, uses_anonymous_args = 0
	.loc 1 2947 1 is_stmt 0 view .LVU443
	push	{r4, r5, r6, r7, r8, r9, r10, fp, lr}
.LCFI14:
	sub	sp, sp, #20
.LCFI15:
	mov	r6, r1
	mov	r7, r2
	.loc 1 2948 2 is_stmt 1 view .LVU444
	.loc 1 2949 2 view .LVU445
	.loc 1 2950 2 view .LVU446
	.loc 1 2951 2 view .LVU447
	.loc 1 2952 2 view .LVU448
	.loc 1 2953 2 view .LVU449
	.loc 1 2954 2 view .LVU450
	.loc 1 2958 2 view .LVU451
	.loc 1 2958 7 is_stmt 0 view .LVU452
	movs	r3, #0
	str	r3, [r1]
	.loc 1 2959 2 is_stmt 1 view .LVU453
	.loc 1 2959 8 is_stmt 0 view .LVU454
	bl	get_ldnumber
.LVL163:
	.loc 1 2960 2 is_stmt 1 view .LVU455
	.loc 1 2960 5 is_stmt 0 view .LVU456
	subs	r5, r0, #0
	blt	.L138
	.loc 1 2963 2 is_stmt 1 view .LVU457
	.loc 1 2963 5 is_stmt 0 view .LVU458
	ldr	r3, .L168
	ldr	r4, [r3, r5, lsl #2]
.LVL164:
	.loc 1 2964 2 is_stmt 1 view .LVU459
	.loc 1 2964 5 is_stmt 0 view .LVU460
	cmp	r4, #0
	beq	.L139
	.loc 1 2966 14 is_stmt 1 view .LVU461
	.loc 1 2967 2 view .LVU462
	.loc 1 2967 7 is_stmt 0 view .LVU463
	str	r4, [r6]
	.loc 1 2969 2 is_stmt 1 view .LVU464
	.loc 1 2969 7 is_stmt 0 view .LVU465
	and	r7, r7, #254
.LVL165:
	.loc 1 2970 2 is_stmt 1 view .LVU466
	.loc 1 2970 8 is_stmt 0 view .LVU467
	ldrb	r3, [r4]	@ zero_extendqisi2
	.loc 1 2970 5 view .LVU468
	cbz	r3, .L122
	.loc 1 2971 3 is_stmt 1 view .LVU469
	.loc 1 2971 10 is_stmt 0 view .LVU470
	ldrb	r0, [r4, #1]	@ zero_extendqisi2
.LVL166:
	.loc 1 2971 10 view .LVU471
	bl	disk_status
.LVL167:
	.loc 1 2972 3 is_stmt 1 view .LVU472
	.loc 1 2972 6 is_stmt 0 view .LVU473
	ands	r6, r0, #1
.LVL168:
	.loc 1 2972 6 view .LVU474
	bne	.L122
	.loc 1 2973 4 is_stmt 1 view .LVU475
	.loc 1 2973 7 is_stmt 0 view .LVU476
	cmp	r7, #0
	beq	.L121
	.loc 1 2973 30 discriminator 1 view .LVU477
	tst	r0, #4
	beq	.L121
	.loc 1 2974 12 view .LVU478
	movs	r6, #10
	b	.L121
.LVL169:
.L122:
	.loc 1 2983 2 is_stmt 1 view .LVU479
	.loc 1 2983 14 is_stmt 0 view .LVU480
	movs	r3, #0
	strb	r3, [r4]
	.loc 1 2984 2 is_stmt 1 view .LVU481
	.loc 1 2984 12 is_stmt 0 view .LVU482
	uxtb	r0, r5
	.loc 1 2984 10 view .LVU483
	strb	r0, [r4, #1]
	.loc 1 2985 2 is_stmt 1 view .LVU484
	.loc 1 2985 9 is_stmt 0 view .LVU485
	bl	disk_initialize
.LVL170:
	.loc 1 2986 2 is_stmt 1 view .LVU486
	.loc 1 2986 5 is_stmt 0 view .LVU487
	ands	r6, r0, #1
	bne	.L141
	.loc 1 2989 2 is_stmt 1 view .LVU488
	.loc 1 2989 5 is_stmt 0 view .LVU489
	cbz	r7, .L123
	.loc 1 2989 28 discriminator 1 view .LVU490
	tst	r0, #4
	bne	.L142
.L123:
	.loc 1 2997 2 is_stmt 1 view .LVU491
.LVL171:
	.loc 1 2998 2 view .LVU492
	.loc 1 2998 8 is_stmt 0 view .LVU493
	movs	r1, #0
	mov	r0, r4
.LVL172:
	.loc 1 2998 8 view .LVU494
	bl	check_fs
.LVL173:
	.loc 1 2999 2 is_stmt 1 view .LVU495
	.loc 1 2999 5 is_stmt 0 view .LVU496
	cmp	r0, #2
	beq	.L143
	.loc 1 2997 8 view .LVU497
	movs	r7, #0
.LVL174:
.L125:
	.loc 1 3011 2 is_stmt 1 view .LVU498
	.loc 1 3011 5 is_stmt 0 view .LVU499
	cmp	r0, #4
	beq	.L146
	.loc 1 3012 2 is_stmt 1 view .LVU500
	.loc 1 3012 5 is_stmt 0 view .LVU501
	cmp	r0, #1
	bhi	.L147
	.loc 1 3063 3 is_stmt 1 view .LVU502
	.loc 1 3063 7 is_stmt 0 view .LVU503
	add	r0, r4, #59
.LVL175:
	.loc 1 3063 7 view .LVU504
	bl	ld_word
.LVL176:
	.loc 1 3063 6 view .LVU505
	cmp	r0, #512
	bne	.L148
	.loc 1 3065 3 is_stmt 1 view .LVU506
	.loc 1 3065 12 is_stmt 0 view .LVU507
	add	r0, r4, #70
	bl	ld_word
.LVL177:
	.loc 1 3065 10 view .LVU508
	mov	r8, r0
.LVL178:
	.loc 1 3066 3 is_stmt 1 view .LVU509
	.loc 1 3066 6 is_stmt 0 view .LVU510
	cbnz	r0, .L130
	.loc 1 3066 20 is_stmt 1 discriminator 1 view .LVU511
	.loc 1 3066 29 is_stmt 0 discriminator 1 view .LVU512
	add	r0, r4, #84
.LVL179:
	.loc 1 3066 29 discriminator 1 view .LVU513
	bl	ld_dword
.LVL180:
	mov	r8, r0
.LVL181:
.L130:
	.loc 1 3067 3 is_stmt 1 view .LVU514
	.loc 1 3067 13 is_stmt 0 view .LVU515
	str	r8, [r4, #24]
	.loc 1 3069 3 is_stmt 1 view .LVU516
	.loc 1 3069 23 is_stmt 0 view .LVU517
	ldrb	r2, [r4, #64]	@ zero_extendqisi2
	.loc 1 3069 14 view .LVU518
	strb	r2, [r4, #2]
	.loc 1 3070 3 is_stmt 1 view .LVU519
	.loc 1 3070 23 is_stmt 0 view .LVU520
	subs	r3, r2, #1
	uxtb	r3, r3
	.loc 1 3070 6 view .LVU521
	cmp	r3, #1
	bhi	.L149
	.loc 1 3071 3 is_stmt 1 view .LVU522
	.loc 1 3071 10 is_stmt 0 view .LVU523
	mul	r5, r8, r2
.LVL182:
	.loc 1 3073 3 is_stmt 1 view .LVU524
	.loc 1 3073 22 is_stmt 0 view .LVU525
	ldrb	r9, [r4, #61]	@ zero_extendqisi2
	.loc 1 3073 13 view .LVU526
	strh	r9, [r4, #10]	@ movhi
	.loc 1 3074 3 is_stmt 1 view .LVU527
	.loc 1 3074 6 is_stmt 0 view .LVU528
	cmp	r9, #0
	beq	.L150
	.loc 1 3074 49 discriminator 2 view .LVU529
	add	r3, r9, #-1
	.loc 1 3074 22 discriminator 2 view .LVU530
	tst	r9, r3
	bne	.L151
	.loc 1 3076 3 is_stmt 1 view .LVU531
	.loc 1 3076 19 is_stmt 0 view .LVU532
	add	r0, r4, #65
	bl	ld_word
.LVL183:
	mov	r10, r0
	.loc 1 3076 17 view .LVU533
	strh	r0, [r4, #8]	@ movhi
	.loc 1 3077 3 is_stmt 1 view .LVU534
	.loc 1 3077 6 is_stmt 0 view .LVU535
	tst	r0, #15
	bne	.L152
	.loc 1 3079 3 is_stmt 1 view .LVU536
	.loc 1 3079 11 is_stmt 0 view .LVU537
	add	r0, r4, #67
	bl	ld_word
.LVL184:
	.loc 1 3079 9 view .LVU538
	mov	fp, r0
.LVL185:
	.loc 1 3080 3 is_stmt 1 view .LVU539
	.loc 1 3080 6 is_stmt 0 view .LVU540
	cbnz	r0, .L131
	.loc 1 3080 19 is_stmt 1 discriminator 1 view .LVU541
	.loc 1 3080 27 is_stmt 0 discriminator 1 view .LVU542
	add	r0, r4, #80
.LVL186:
	.loc 1 3080 27 discriminator 1 view .LVU543
	bl	ld_dword
.LVL187:
	mov	fp, r0
.LVL188:
.L131:
	.loc 1 3082 3 is_stmt 1 view .LVU544
	.loc 1 3082 10 is_stmt 0 view .LVU545
	add	r0, r4, #62
.LVL189:
	.loc 1 3082 10 view .LVU546
	bl	ld_word
.LVL190:
	.loc 1 3083 3 is_stmt 1 view .LVU547
	.loc 1 3083 6 is_stmt 0 view .LVU548
	mov	r2, r0
	cmp	r0, #0
	beq	.L153
	.loc 1 3086 3 is_stmt 1 view .LVU549
	.loc 1 3086 17 is_stmt 0 view .LVU550
	adds	r3, r0, r5
	.loc 1 3086 10 view .LVU551
	add	r3, r3, r10, lsr #4
.LVL191:
	.loc 1 3087 3 is_stmt 1 view .LVU552
	.loc 1 3087 6 is_stmt 0 view .LVU553
	cmp	fp, r3
	bcc	.L154
	.loc 1 3088 3 is_stmt 1 view .LVU554
	.loc 1 3088 18 is_stmt 0 view .LVU555
	sub	fp, fp, r3
.LVL192:
	.loc 1 3088 9 view .LVU556
	udiv	r1, fp, r9
.LVL193:
	.loc 1 3089 3 is_stmt 1 view .LVU557
	.loc 1 3089 6 is_stmt 0 view .LVU558
	cmp	fp, r9
	bcc	.L155
	.loc 1 3090 3 is_stmt 1 view .LVU559
.LVL194:
	.loc 1 3091 3 view .LVU560
	.loc 1 3091 6 is_stmt 0 view .LVU561
	movw	r0, #65525
.LVL195:
	.loc 1 3091 6 view .LVU562
	cmp	r1, r0
	bls	.L156
	.loc 1 3090 7 view .LVU563
	mov	fp, #3
.L132:
.LVL196:
	.loc 1 3092 3 is_stmt 1 view .LVU564
	.loc 1 3092 6 is_stmt 0 view .LVU565
	movw	r0, #4085
	cmp	r1, r0
	bhi	.L133
	.loc 1 3092 31 view .LVU566
	mov	fp, #1
.LVL197:
.L133:
	.loc 1 3095 3 is_stmt 1 view .LVU567
	.loc 1 3095 24 is_stmt 0 view .LVU568
	add	r9, r1, #2
	.loc 1 3095 16 view .LVU569
	str	r9, [r4, #20]
	.loc 1 3096 3 is_stmt 1 view .LVU570
	.loc 1 3096 15 is_stmt 0 view .LVU571
	str	r7, [r4, #28]
	.loc 1 3097 3 is_stmt 1 view .LVU572
	.loc 1 3097 23 is_stmt 0 view .LVU573
	add	r2, r2, r7
	.loc 1 3097 15 view .LVU574
	str	r2, [r4, #32]
	.loc 1 3098 3 is_stmt 1 view .LVU575
	.loc 1 3098 24 is_stmt 0 view .LVU576
	add	r3, r3, r7
.LVL198:
	.loc 1 3098 16 view .LVU577
	str	r3, [r4, #40]
	.loc 1 3099 3 is_stmt 1 view .LVU578
	.loc 1 3099 6 is_stmt 0 view .LVU579
	cmp	fp, #3
	beq	.L163
	.loc 1 3105 4 is_stmt 1 view .LVU580
	.loc 1 3105 7 is_stmt 0 view .LVU581
	cmp	r10, #0
	beq	.L160
	.loc 1 3106 4 is_stmt 1 view .LVU582
	.loc 1 3106 30 is_stmt 0 view .LVU583
	add	r2, r2, r5
	.loc 1 3106 16 view .LVU584
	str	r2, [r4, #36]
	.loc 1 3107 4 is_stmt 1 view .LVU585
	.loc 1 3108 22 is_stmt 0 view .LVU586
	cmp	fp, #2
	beq	.L164
	.loc 1 3108 37 discriminator 2 view .LVU587
	add	r3, r9, r9, lsl #1
	.loc 1 3108 61 discriminator 2 view .LVU588
	and	r9, r9, #1
	.loc 1 3108 22 discriminator 2 view .LVU589
	add	r9, r9, r3, lsr #1
.LVL199:
.L135:
	.loc 1 3110 3 is_stmt 1 view .LVU590
	.loc 1 3110 27 is_stmt 0 view .LVU591
	addw	r9, r9, #511
.LVL200:
	.loc 1 3110 6 view .LVU592
	cmp	r8, r9, lsr #9
	bcc	.L161
	.loc 1 3114 3 is_stmt 1 view .LVU593
	.loc 1 3114 33 is_stmt 0 view .LVU594
	mov	r3, #-1
	str	r3, [r4, #16]
	.loc 1 3114 17 view .LVU595
	str	r3, [r4, #12]
	.loc 1 3115 3 is_stmt 1 view .LVU596
	.loc 1 3115 16 is_stmt 0 view .LVU597
	movs	r3, #128
	strb	r3, [r4, #4]
	.loc 1 3117 3 is_stmt 1 view .LVU598
	.loc 1 3117 6 is_stmt 0 view .LVU599
	cmp	fp, #3
	beq	.L165
.L137:
	.loc 1 3138 2 is_stmt 1 view .LVU600
	.loc 1 3138 14 is_stmt 0 view .LVU601
	strb	fp, [r4]
	.loc 1 3139 2 is_stmt 1 view .LVU602
	.loc 1 3139 11 is_stmt 0 view .LVU603
	ldr	r2, .L168+4
	ldrh	r3, [r2]
	adds	r3, r3, #1
	uxth	r3, r3
	.loc 1 3139 9 view .LVU604
	strh	r3, [r2]	@ movhi
	strh	r3, [r4, #6]	@ movhi
	.loc 1 3152 2 is_stmt 1 view .LVU605
	.loc 1 3152 9 is_stmt 0 view .LVU606
	b	.L121
.LVL201:
.L144:
	.loc 1 3002 54 view .LVU607
	movs	r0, #0
.LVL202:
.L126:
	.loc 1 3002 10 discriminator 4 view .LVU608
	add	r3, sp, #16
	add	r3, r3, r5, lsl #2
	str	r0, [r3, #-16]
	.loc 1 3000 23 discriminator 4 view .LVU609
	adds	r5, r5, #1
.LVL203:
.L124:
	.loc 1 3000 3 discriminator 2 view .LVU610
	cmp	r5, #3
	bhi	.L166
	.loc 1 3001 4 is_stmt 1 view .LVU611
	.loc 1 3001 9 is_stmt 0 view .LVU612
	add	r0, r4, #48
	.loc 1 3001 34 view .LVU613
	lsls	r3, r5, #4
	.loc 1 3001 30 view .LVU614
	add	r3, r3, #446
	.loc 1 3001 7 view .LVU615
	add	r0, r0, r3
.LVL204:
	.loc 1 3002 4 is_stmt 1 view .LVU616
	.loc 1 3002 14 is_stmt 0 view .LVU617
	ldrb	r3, [r0, #4]	@ zero_extendqisi2
	.loc 1 3002 54 view .LVU618
	cmp	r3, #0
	beq	.L144
	.loc 1 3002 29 discriminator 1 view .LVU619
	adds	r0, r0, #8
.LVL205:
	.loc 1 3002 29 discriminator 1 view .LVU620
	bl	ld_dword
.LVL206:
	.loc 1 3002 29 discriminator 1 view .LVU621
	b	.L126
.LVL207:
.L143:
	.loc 1 3000 10 view .LVU622
	movs	r5, #0
.LVL208:
	.loc 1 3000 10 view .LVU623
	b	.L124
.LVL209:
.L166:
	.loc 1 3000 10 view .LVU624
	movs	r5, #0
.LVL210:
	.loc 1 3000 10 view .LVU625
	b	.L129
.LVL211:
.L167:
	.loc 1 3008 18 discriminator 1 view .LVU626
	mov	r1, r7
	mov	r0, r4
	bl	check_fs
.LVL212:
	.loc 1 3009 3 discriminator 1 view .LVU627
	cmp	r0, #1
	bls	.L125
.LVL213:
.L128:
	.loc 1 3009 36 discriminator 1 view .LVU628
	adds	r5, r5, #1
.LVL214:
	.loc 1 3009 36 discriminator 1 view .LVU629
	cmp	r5, #3
	bhi	.L125
.LVL215:
.L129:
	.loc 1 3006 3 is_stmt 1 view .LVU630
	.loc 1 3007 4 view .LVU631
	.loc 1 3007 10 is_stmt 0 view .LVU632
	add	r3, sp, #16
	add	r3, r3, r5, lsl #2
	ldr	r7, [r3, #-16]
.LVL216:
	.loc 1 3008 4 is_stmt 1 view .LVU633
	.loc 1 3008 8 is_stmt 0 view .LVU634
	cmp	r7, #0
	bne	.L167
	movs	r0, #3
	b	.L128
.LVL217:
.L156:
	.loc 1 3091 31 view .LVU635
	mov	fp, #2
	b	.L132
.LVL218:
.L163:
	.loc 1 3100 4 is_stmt 1 view .LVU636
	.loc 1 3100 8 is_stmt 0 view .LVU637
	add	r0, r4, #90
	bl	ld_word
.LVL219:
	.loc 1 3100 7 view .LVU638
	cmp	r0, #0
	bne	.L158
	.loc 1 3101 4 is_stmt 1 view .LVU639
	.loc 1 3101 7 is_stmt 0 view .LVU640
	cmp	r10, #0
	bne	.L159
	.loc 1 3102 4 is_stmt 1 view .LVU641
	.loc 1 3102 18 is_stmt 0 view .LVU642
	add	r0, r4, #92
	bl	ld_dword
.LVL220:
	.loc 1 3102 16 view .LVU643
	str	r0, [r4, #36]
	.loc 1 3103 4 is_stmt 1 view .LVU644
	.loc 1 3103 11 is_stmt 0 view .LVU645
	lsl	r9, r9, #2
.LVL221:
	.loc 1 3103 11 view .LVU646
	b	.L135
.LVL222:
.L164:
	.loc 1 3108 22 discriminator 1 view .LVU647
	lsl	r9, r9, #1
	b	.L135
.LVL223:
.L165:
	.loc 1 3118 7 view .LVU648
	add	r0, r4, #96
	bl	ld_word
.LVL224:
	.loc 1 3118 4 view .LVU649
	cmp	r0, #1
	bne	.L137
	.loc 1 3119 7 view .LVU650
	adds	r1, r7, #1
	mov	r0, r4
	bl	move_window
.LVL225:
	.loc 1 3119 4 view .LVU651
	cmp	r0, #0
	bne	.L137
	.loc 1 3121 4 is_stmt 1 view .LVU652
	.loc 1 3121 17 is_stmt 0 view .LVU653
	movs	r3, #0
	strb	r3, [r4, #4]
	.loc 1 3122 4 is_stmt 1 view .LVU654
	.loc 1 3122 8 is_stmt 0 view .LVU655
	addw	r0, r4, #558
	bl	ld_word
.LVL226:
	.loc 1 3122 7 view .LVU656
	movw	r3, #43605
	cmp	r0, r3
	bne	.L137
	.loc 1 3123 8 view .LVU657
	add	r0, r4, #48
	bl	ld_dword
.LVL227:
	.loc 1 3123 5 view .LVU658
	ldr	r3, .L168+8
	cmp	r0, r3
	bne	.L137
	.loc 1 3124 8 view .LVU659
	add	r0, r4, #532
	bl	ld_dword
.LVL228:
	.loc 1 3124 5 view .LVU660
	ldr	r3, .L168+12
	cmp	r0, r3
	bne	.L137
	.loc 1 3127 5 is_stmt 1 view .LVU661
	.loc 1 3127 21 is_stmt 0 view .LVU662
	add	r0, r4, #536
	bl	ld_dword
.LVL229:
	.loc 1 3127 19 view .LVU663
	str	r0, [r4, #16]
	.loc 1 3130 5 is_stmt 1 view .LVU664
	.loc 1 3130 21 is_stmt 0 view .LVU665
	add	r0, r4, #540
	bl	ld_dword
.LVL230:
	.loc 1 3130 19 view .LVU666
	str	r0, [r4, #12]
	b	.L137
.LVL231:
.L138:
	.loc 1 2960 22 view .LVU667
	movs	r6, #11
.LVL232:
.L121:
	.loc 1 3153 1 view .LVU668
	mov	r0, r6
	add	sp, sp, #20
.LCFI16:
	@ sp needed
	pop	{r4, r5, r6, r7, r8, r9, r10, fp, pc}
.LVL233:
.L139:
.LCFI17:
	.loc 1 2964 18 view .LVU669
	movs	r6, #12
.LVL234:
	.loc 1 2964 18 view .LVU670
	b	.L121
.LVL235:
.L141:
	.loc 1 2987 10 view .LVU671
	movs	r6, #3
	b	.L121
.L142:
	.loc 1 2990 10 view .LVU672
	movs	r6, #10
	b	.L121
.LVL236:
.L146:
	.loc 1 3011 23 view .LVU673
	movs	r6, #1
	b	.L121
.L147:
	.loc 1 3012 23 view .LVU674
	movs	r6, #13
	b	.L121
.LVL237:
.L148:
	.loc 1 3063 59 view .LVU675
	movs	r6, #13
	b	.L121
.LVL238:
.L149:
	.loc 1 3070 50 view .LVU676
	movs	r6, #13
	b	.L121
.LVL239:
.L150:
	.loc 1 3074 63 view .LVU677
	movs	r6, #13
	b	.L121
.L151:
	movs	r6, #13
	b	.L121
.L152:
	.loc 1 3077 49 view .LVU678
	movs	r6, #13
	b	.L121
.LVL240:
.L153:
	.loc 1 3083 25 view .LVU679
	movs	r6, #13
	b	.L121
.LVL241:
.L154:
	.loc 1 3087 30 view .LVU680
	movs	r6, #13
	b	.L121
.LVL242:
.L155:
	.loc 1 3089 26 view .LVU681
	movs	r6, #13
	b	.L121
.LVL243:
.L158:
	.loc 1 3100 52 view .LVU682
	movs	r6, #13
	b	.L121
.L159:
	.loc 1 3101 30 view .LVU683
	movs	r6, #13
	b	.L121
.LVL244:
.L160:
	.loc 1 3105 35 view .LVU684
	movs	r6, #13
	b	.L121
.LVL245:
.L161:
	.loc 1 3110 60 view .LVU685
	movs	r6, #13
	b	.L121
.L169:
	.align	2
.L168:
	.word	.LANCHOR0
	.word	.LANCHOR1
	.word	1096897106
	.word	1631679090
.LFE30:
	.size	find_volume, .-find_volume
	.section	.text.put_fat,"ax",%progbits
	.align	1
	.syntax unified
	.thumb
	.thumb_func
	.fpu fpv4-sp-d16
	.type	put_fat, %function
put_fat:
.LVL246:
.LFB13:
	.loc 1 1067 1 is_stmt 1 view -0
	@ args = 0, pretend = 0, frame = 0
	@ frame_needed = 0, uses_anonymous_args = 0
	.loc 1 1067 1 is_stmt 0 view .LVU687
	push	{r4, r5, r6, r7, r8, r9, r10, lr}
.LCFI18:
	.loc 1 1068 2 is_stmt 1 view .LVU688
	.loc 1 1069 2 view .LVU689
	.loc 1 1070 2 view .LVU690
.LVL247:
	.loc 1 1073 2 view .LVU691
	.loc 1 1073 5 is_stmt 0 view .LVU692
	cmp	r1, #1
	bls	.L178
	.loc 1 1073 28 discriminator 1 view .LVU693
	ldr	r3, [r0, #20]
	.loc 1 1073 16 discriminator 1 view .LVU694
	cmp	r3, r1
	bls	.L179
	mov	r7, r2
	mov	r4, r1
	mov	r6, r0
	.loc 1 1074 3 is_stmt 1 view .LVU695
	.loc 1 1074 13 is_stmt 0 view .LVU696
	ldrb	r3, [r0]	@ zero_extendqisi2
	.loc 1 1074 3 view .LVU697
	cmp	r3, #2
	beq	.L172
	cmp	r3, #3
	beq	.L173
	cmp	r3, #1
	beq	.L182
	.loc 1 1070 10 view .LVU698
	movs	r5, #2
.LVL248:
.L171:
	.loc 1 1110 2 is_stmt 1 view .LVU699
	.loc 1 1111 1 is_stmt 0 view .LVU700
	mov	r0, r5
	pop	{r4, r5, r6, r7, r8, r9, r10, pc}
.LVL249:
.L182:
	.loc 1 1076 4 is_stmt 1 view .LVU701
	.loc 1 1076 21 view .LVU702
	.loc 1 1076 24 is_stmt 0 view .LVU703
	add	r8, r1, r1, lsr #1
.LVL250:
	.loc 1 1077 4 is_stmt 1 view .LVU704
	.loc 1 1077 28 is_stmt 0 view .LVU705
	ldr	r1, [r0, #32]
.LVL251:
	.loc 1 1077 10 view .LVU706
	add	r1, r1, r8, lsr #9
	bl	move_window
.LVL252:
	.loc 1 1078 4 is_stmt 1 view .LVU707
	.loc 1 1078 7 is_stmt 0 view .LVU708
	mov	r5, r0
	cmp	r0, #0
	bne	.L171
	.loc 1 1079 4 is_stmt 1 view .LVU709
	.loc 1 1079 8 is_stmt 0 view .LVU710
	add	r10, r6, #48
	.loc 1 1079 23 view .LVU711
	add	r9, r8, #1
.LVL253:
	.loc 1 1079 23 view .LVU712
	ubfx	r8, r8, #0, #9
.LVL254:
	.loc 1 1080 4 is_stmt 1 view .LVU713
	.loc 1 1080 7 is_stmt 0 view .LVU714
	ands	r4, r4, #1
.LVL255:
	.loc 1 1080 7 view .LVU715
	beq	.L174
	.loc 1 1080 24 discriminator 1 view .LVU716
	ldrsb	r3, [r10, r8]
	.loc 1 1080 27 discriminator 1 view .LVU717
	and	r3, r3, #15
	.loc 1 1080 48 discriminator 1 view .LVU718
	lsls	r2, r7, #4
	and	r2, r2, #4080
	.loc 1 1080 35 discriminator 1 view .LVU719
	orrs	r3, r3, r2
	.loc 1 1080 7 discriminator 1 view .LVU720
	uxtb	r3, r3
.L175:
	.loc 1 1080 7 discriminator 4 view .LVU721
	strb	r3, [r10, r8]
	.loc 1 1081 4 is_stmt 1 discriminator 4 view .LVU722
	.loc 1 1081 14 is_stmt 0 discriminator 4 view .LVU723
	movs	r3, #1
	strb	r3, [r6, #3]
	.loc 1 1082 4 is_stmt 1 discriminator 4 view .LVU724
	.loc 1 1082 28 is_stmt 0 discriminator 4 view .LVU725
	ldr	r1, [r6, #32]
	.loc 1 1082 10 discriminator 4 view .LVU726
	add	r1, r1, r9, lsr #9
	mov	r0, r6
.LVL256:
	.loc 1 1082 10 discriminator 4 view .LVU727
	bl	move_window
.LVL257:
	.loc 1 1083 4 is_stmt 1 discriminator 4 view .LVU728
	.loc 1 1083 7 is_stmt 0 discriminator 4 view .LVU729
	mov	r5, r0
	cmp	r0, #0
	bne	.L171
	.loc 1 1084 4 is_stmt 1 view .LVU730
	.loc 1 1084 21 is_stmt 0 view .LVU731
	ubfx	r9, r9, #0, #9
.LVL258:
	.loc 1 1085 4 is_stmt 1 view .LVU732
	.loc 1 1085 7 is_stmt 0 view .LVU733
	cbz	r4, .L176
	.loc 1 1085 7 discriminator 1 view .LVU734
	ubfx	r2, r7, #4, #8
.LVL259:
.L177:
	.loc 1 1085 7 discriminator 4 view .LVU735
	strb	r2, [r10, r9]
	.loc 1 1086 4 is_stmt 1 discriminator 4 view .LVU736
	.loc 1 1086 14 is_stmt 0 discriminator 4 view .LVU737
	movs	r3, #1
	strb	r3, [r6, #3]
	.loc 1 1087 4 is_stmt 1 discriminator 4 view .LVU738
	b	.L171
.LVL260:
.L174:
	.loc 1 1080 7 is_stmt 0 discriminator 2 view .LVU739
	uxtb	r3, r7
	b	.L175
.LVL261:
.L176:
	.loc 1 1085 43 discriminator 2 view .LVU740
	ldrsb	r2, [r10, r9]
	.loc 1 1085 46 discriminator 2 view .LVU741
	bic	r2, r2, #15
	.loc 1 1085 74 discriminator 2 view .LVU742
	ubfx	r7, r7, #8, #4
.LVL262:
	.loc 1 1085 54 discriminator 2 view .LVU743
	orrs	r2, r2, r7
	.loc 1 1085 7 discriminator 2 view .LVU744
	uxtb	r2, r2
	b	.L177
.LVL263:
.L172:
	.loc 1 1090 4 is_stmt 1 view .LVU745
	.loc 1 1090 28 is_stmt 0 view .LVU746
	ldr	r1, [r0, #32]
.LVL264:
	.loc 1 1090 10 view .LVU747
	add	r1, r1, r4, lsr #8
	bl	move_window
.LVL265:
	.loc 1 1091 4 is_stmt 1 view .LVU748
	.loc 1 1091 7 is_stmt 0 view .LVU749
	mov	r5, r0
	cmp	r0, #0
	bne	.L171
	.loc 1 1092 4 is_stmt 1 view .LVU750
	.loc 1 1092 12 is_stmt 0 view .LVU751
	add	r0, r6, #48
.LVL266:
	.loc 1 1092 27 view .LVU752
	lsls	r4, r4, #1
.LVL267:
	.loc 1 1092 31 view .LVU753
	and	r4, r4, #510
	.loc 1 1092 4 view .LVU754
	uxth	r1, r7
	add	r0, r0, r4
	bl	st_word
.LVL268:
	.loc 1 1093 4 is_stmt 1 view .LVU755
	.loc 1 1093 14 is_stmt 0 view .LVU756
	movs	r3, #1
	strb	r3, [r6, #3]
	.loc 1 1094 4 is_stmt 1 view .LVU757
	b	.L171
.LVL269:
.L173:
	.loc 1 1100 4 view .LVU758
	.loc 1 1100 28 is_stmt 0 view .LVU759
	ldr	r1, [r0, #32]
.LVL270:
	.loc 1 1100 10 view .LVU760
	add	r1, r1, r4, lsr #7
	bl	move_window
.LVL271:
	.loc 1 1101 4 is_stmt 1 view .LVU761
	.loc 1 1101 7 is_stmt 0 view .LVU762
	mov	r5, r0
	cmp	r0, #0
	bne	.L171
	.loc 1 1102 4 is_stmt 1 view .LVU763
	.loc 1 1103 5 view .LVU764
	.loc 1 1103 16 is_stmt 0 view .LVU765
	bic	r7, r7, #-268435456
.LVL272:
	.loc 1 1103 42 view .LVU766
	add	r3, r6, #48
	.loc 1 1103 57 view .LVU767
	lsls	r1, r4, #2
	.loc 1 1103 61 view .LVU768
	and	r1, r1, #508
	.loc 1 1103 33 view .LVU769
	adds	r4, r3, r1
.LVL273:
	.loc 1 1103 33 view .LVU770
	mov	r0, r4
.LVL274:
	.loc 1 1103 33 view .LVU771
	bl	ld_dword
.LVL275:
	.loc 1 1103 71 view .LVU772
	and	r1, r0, #-268435456
.LVL276:
	.loc 1 1105 4 is_stmt 1 view .LVU773
	orrs	r1, r1, r7
.LVL277:
	.loc 1 1105 4 is_stmt 0 view .LVU774
	mov	r0, r4
	bl	st_dword
.LVL278:
	.loc 1 1106 4 is_stmt 1 view .LVU775
	.loc 1 1106 14 is_stmt 0 view .LVU776
	movs	r3, #1
	strb	r3, [r6, #3]
	.loc 1 1107 4 is_stmt 1 view .LVU777
	b	.L171
.LVL279:
.L178:
	.loc 1 1070 10 is_stmt 0 view .LVU778
	movs	r5, #2
	b	.L171
.L179:
	movs	r5, #2
	b	.L171
.LFE13:
	.size	put_fat, .-put_fat
	.section	.text.get_fat,"ax",%progbits
	.align	1
	.syntax unified
	.thumb
	.thumb_func
	.fpu fpv4-sp-d16
	.type	get_fat, %function
get_fat:
.LVL280:
.LFB12:
	.loc 1 990 1 is_stmt 1 view -0
	@ args = 0, pretend = 0, frame = 0
	@ frame_needed = 0, uses_anonymous_args = 0
	.loc 1 990 1 is_stmt 0 view .LVU780
	push	{r3, r4, r5, r6, r7, lr}
.LCFI19:
	.loc 1 991 2 is_stmt 1 view .LVU781
	.loc 1 992 2 view .LVU782
	.loc 1 993 2 view .LVU783
	.loc 1 993 9 is_stmt 0 view .LVU784
	ldr	r6, [r0]
.LVL281:
	.loc 1 996 2 is_stmt 1 view .LVU785
	.loc 1 996 5 is_stmt 0 view .LVU786
	cmp	r1, #1
	bls	.L188
	.loc 1 996 28 discriminator 1 view .LVU787
	ldr	r3, [r6, #20]
	.loc 1 996 15 discriminator 1 view .LVU788
	cmp	r3, r1
	bls	.L189
	mov	r4, r1
	.loc 1 1000 3 is_stmt 1 view .LVU789
.LVL282:
	.loc 1 1002 3 view .LVU790
	.loc 1 1002 13 is_stmt 0 view .LVU791
	ldrb	r3, [r6]	@ zero_extendqisi2
	.loc 1 1002 3 view .LVU792
	cmp	r3, #2
	beq	.L185
	cmp	r3, #3
	beq	.L186
	cmp	r3, #1
	beq	.L196
	.loc 1 1046 8 view .LVU793
	movs	r0, #1
.LVL283:
	.loc 1 1046 8 view .LVU794
	b	.L183
.LVL284:
.L196:
	.loc 1 1004 4 is_stmt 1 view .LVU795
	.loc 1 1004 21 view .LVU796
	.loc 1 1004 24 is_stmt 0 view .LVU797
	add	r5, r1, r1, lsr #1
.LVL285:
	.loc 1 1005 4 is_stmt 1 view .LVU798
	.loc 1 1005 26 is_stmt 0 view .LVU799
	ldr	r1, [r6, #32]
.LVL286:
	.loc 1 1005 8 view .LVU800
	add	r1, r1, r5, lsr #9
	mov	r0, r6
.LVL287:
	.loc 1 1005 8 view .LVU801
	bl	move_window
.LVL288:
	.loc 1 1005 7 view .LVU802
	cbz	r0, .L197
	.loc 1 1000 7 view .LVU803
	mov	r0, #-1
	b	.L183
.L197:
	.loc 1 1006 4 is_stmt 1 view .LVU804
	.loc 1 1006 19 is_stmt 0 view .LVU805
	adds	r7, r5, #1
.LVL289:
	.loc 1 1006 22 view .LVU806
	ubfx	r5, r5, #0, #9
	.loc 1 1006 16 view .LVU807
	add	r5, r5, r6
	ldrb	r5, [r5, #48]	@ zero_extendqisi2
.LVL290:
	.loc 1 1007 4 is_stmt 1 view .LVU808
	.loc 1 1007 26 is_stmt 0 view .LVU809
	ldr	r1, [r6, #32]
	.loc 1 1007 8 view .LVU810
	add	r1, r1, r7, lsr #9
	mov	r0, r6
	bl	move_window
.LVL291:
	.loc 1 1007 7 view .LVU811
	cbnz	r0, .L192
	.loc 1 1008 4 is_stmt 1 view .LVU812
	.loc 1 1008 21 is_stmt 0 view .LVU813
	ubfx	r3, r7, #0, #9
	.loc 1 1008 17 view .LVU814
	add	r3, r3, r6
	ldrb	r0, [r3, #48]	@ zero_extendqisi2
	.loc 1 1008 7 view .LVU815
	orr	r0, r5, r0, lsl #8
.LVL292:
	.loc 1 1009 4 is_stmt 1 view .LVU816
	.loc 1 1009 33 is_stmt 0 view .LVU817
	tst	r4, #1
	beq	.L187
	.loc 1 1009 33 discriminator 1 view .LVU818
	lsrs	r0, r0, #4
.LVL293:
	.loc 1 1009 33 discriminator 1 view .LVU819
	b	.L183
.LVL294:
.L187:
	.loc 1 1009 33 discriminator 2 view .LVU820
	ubfx	r0, r0, #0, #12
.LVL295:
	.loc 1 1009 33 discriminator 2 view .LVU821
	b	.L183
.LVL296:
.L185:
	.loc 1 1013 4 is_stmt 1 view .LVU822
	.loc 1 1013 26 is_stmt 0 view .LVU823
	ldr	r1, [r6, #32]
.LVL297:
	.loc 1 1013 8 view .LVU824
	add	r1, r1, r4, lsr #8
	mov	r0, r6
.LVL298:
	.loc 1 1013 8 view .LVU825
	bl	move_window
.LVL299:
	.loc 1 1013 7 view .LVU826
	cbnz	r0, .L193
	.loc 1 1014 4 is_stmt 1 view .LVU827
	.loc 1 1014 18 is_stmt 0 view .LVU828
	add	r0, r6, #48
	.loc 1 1014 33 view .LVU829
	lsls	r1, r4, #1
	.loc 1 1014 37 view .LVU830
	and	r1, r1, #510
	.loc 1 1014 10 view .LVU831
	add	r0, r0, r1
	bl	ld_word
.LVL300:
	.loc 1 1015 4 is_stmt 1 view .LVU832
	b	.L183
.LVL301:
.L186:
	.loc 1 1018 4 view .LVU833
	.loc 1 1018 26 is_stmt 0 view .LVU834
	ldr	r1, [r6, #32]
.LVL302:
	.loc 1 1018 8 view .LVU835
	add	r1, r1, r4, lsr #7
	mov	r0, r6
.LVL303:
	.loc 1 1018 8 view .LVU836
	bl	move_window
.LVL304:
	.loc 1 1018 7 view .LVU837
	cbnz	r0, .L194
	.loc 1 1019 4 is_stmt 1 view .LVU838
	.loc 1 1019 19 is_stmt 0 view .LVU839
	adds	r6, r6, #48
.LVL305:
	.loc 1 1019 34 view .LVU840
	lsls	r1, r4, #2
	.loc 1 1019 38 view .LVU841
	and	r0, r1, #508
	.loc 1 1019 10 view .LVU842
	add	r0, r0, r6
	bl	ld_dword
.LVL306:
	.loc 1 1019 8 view .LVU843
	bic	r0, r0, #-268435456
.LVL307:
	.loc 1 1020 4 is_stmt 1 view .LVU844
	b	.L183
.LVL308:
.L188:
	.loc 1 997 7 is_stmt 0 view .LVU845
	movs	r0, #1
.LVL309:
.L183:
	.loc 1 1051 1 view .LVU846
	pop	{r3, r4, r5, r6, r7, pc}
.LVL310:
.L189:
	.loc 1 997 7 view .LVU847
	movs	r0, #1
.LVL311:
	.loc 1 997 7 view .LVU848
	b	.L183
.LVL312:
.L192:
	.loc 1 1000 7 view .LVU849
	mov	r0, #-1
	b	.L183
.LVL313:
.L193:
	.loc 1 1000 7 view .LVU850
	mov	r0, #-1
	b	.L183
.L194:
	.loc 1 1000 7 view .LVU851
	mov	r0, #-1
	.loc 1 1050 2 is_stmt 1 view .LVU852
	.loc 1 1050 9 is_stmt 0 view .LVU853
	b	.L183
.LFE12:
	.size	get_fat, .-get_fat
	.section	.text.dir_sdi,"ax",%progbits
	.align	1
	.syntax unified
	.thumb
	.thumb_func
	.fpu fpv4-sp-d16
	.type	dir_sdi, %function
dir_sdi:
.LVL314:
.LFB16:
	.loc 1 1431 1 is_stmt 1 view -0
	@ args = 0, pretend = 0, frame = 0
	@ frame_needed = 0, uses_anonymous_args = 0
	.loc 1 1431 1 is_stmt 0 view .LVU855
	push	{r4, r5, r6, r7, r8, lr}
.LCFI20:
	.loc 1 1432 2 is_stmt 1 view .LVU856
	.loc 1 1433 2 view .LVU857
	.loc 1 1433 9 is_stmt 0 view .LVU858
	ldr	r8, [r0]
.LVL315:
	.loc 1 1436 2 is_stmt 1 view .LVU859
	.loc 1 1436 5 is_stmt 0 view .LVU860
	cmp	r1, #2097152
	bcs	.L205
	mov	r6, r0
	mov	r5, r1
	.loc 1 1436 84 discriminator 1 view .LVU861
	tst	r1, #31
	bne	.L206
	.loc 1 1439 2 is_stmt 1 view .LVU862
	.loc 1 1439 11 is_stmt 0 view .LVU863
	str	r1, [r6, #16]
	.loc 1 1440 2 is_stmt 1 view .LVU864
	.loc 1 1440 7 is_stmt 0 view .LVU865
	ldr	r4, [r0, #8]
.LVL316:
	.loc 1 1441 2 is_stmt 1 view .LVU866
	.loc 1 1441 5 is_stmt 0 view .LVU867
	cbnz	r4, .L200
	.loc 1 1441 21 discriminator 1 view .LVU868
	ldrb	r3, [r8]	@ zero_extendqisi2
	.loc 1 1441 16 discriminator 1 view .LVU869
	cmp	r3, #2
	bls	.L200
	.loc 1 1442 3 is_stmt 1 view .LVU870
	.loc 1 1442 8 is_stmt 0 view .LVU871
	ldr	r4, [r8, #36]
.LVL317:
	.loc 1 1443 3 is_stmt 1 view .LVU872
.L200:
	.loc 1 1446 2 view .LVU873
	.loc 1 1446 5 is_stmt 0 view .LVU874
	cbnz	r4, .L201
	.loc 1 1447 3 is_stmt 1 view .LVU875
	.loc 1 1447 25 is_stmt 0 view .LVU876
	ldrh	r3, [r8, #8]
	.loc 1 1447 6 view .LVU877
	cmp	r3, r5, lsr #5
	bls	.L207
	.loc 1 1448 3 is_stmt 1 view .LVU878
	.loc 1 1448 16 is_stmt 0 view .LVU879
	ldr	r3, [r8, #36]
	.loc 1 1448 12 view .LVU880
	str	r3, [r6, #24]
.LVL318:
.L202:
	.loc 1 1460 2 is_stmt 1 view .LVU881
	.loc 1 1460 12 is_stmt 0 view .LVU882
	str	r4, [r6, #20]
	.loc 1 1461 2 is_stmt 1 view .LVU883
	.loc 1 1461 9 is_stmt 0 view .LVU884
	ldr	r3, [r6, #24]
	.loc 1 1461 5 view .LVU885
	cbz	r3, .L211
	.loc 1 1462 2 is_stmt 1 view .LVU886
	.loc 1 1462 11 is_stmt 0 view .LVU887
	add	r3, r3, r5, lsr #9
	str	r3, [r6, #24]
	.loc 1 1463 2 is_stmt 1 view .LVU888
	.loc 1 1463 12 is_stmt 0 view .LVU889
	add	r8, r8, #48
.LVL319:
	.loc 1 1463 27 view .LVU890
	ubfx	r5, r5, #0, #9
.LVL320:
	.loc 1 1463 20 view .LVU891
	add	r5, r5, r8
	.loc 1 1463 10 view .LVU892
	str	r5, [r6, #28]
	.loc 1 1465 2 is_stmt 1 view .LVU893
	.loc 1 1465 9 is_stmt 0 view .LVU894
	movs	r0, #0
.LVL321:
.L199:
	.loc 1 1466 1 view .LVU895
	pop	{r4, r5, r6, r7, r8, pc}
.LVL322:
.L201:
	.loc 1 1451 3 is_stmt 1 view .LVU896
	.loc 1 1451 18 is_stmt 0 view .LVU897
	ldrh	r7, [r8, #10]
	.loc 1 1451 7 view .LVU898
	lsls	r7, r7, #9
.LVL323:
	.loc 1 1452 3 is_stmt 1 view .LVU899
	.loc 1 1452 9 is_stmt 0 view .LVU900
	b	.L203
.LVL324:
.L214:
	.loc 1 1456 4 is_stmt 1 view .LVU901
	.loc 1 1456 8 is_stmt 0 view .LVU902
	subs	r5, r5, r7
.LVL325:
.L203:
	.loc 1 1452 9 view .LVU903
	cmp	r5, r7
	bcc	.L213
	.loc 1 1453 4 is_stmt 1 view .LVU904
	.loc 1 1453 11 is_stmt 0 view .LVU905
	mov	r1, r4
	mov	r0, r6
	bl	get_fat
.LVL326:
	mov	r4, r0
.LVL327:
	.loc 1 1454 4 is_stmt 1 view .LVU906
	.loc 1 1454 7 is_stmt 0 view .LVU907
	cmp	r0, #-1
	beq	.L208
	.loc 1 1455 4 is_stmt 1 view .LVU908
	.loc 1 1455 7 is_stmt 0 view .LVU909
	cmp	r0, #1
	bls	.L209
	.loc 1 1455 30 discriminator 2 view .LVU910
	ldr	r3, [r8, #20]
	.loc 1 1455 17 discriminator 2 view .LVU911
	cmp	r3, r0
	bhi	.L214
	.loc 1 1455 49 view .LVU912
	movs	r0, #2
.LVL328:
	.loc 1 1455 49 view .LVU913
	b	.L199
.L213:
	.loc 1 1458 3 is_stmt 1 view .LVU914
	.loc 1 1458 14 is_stmt 0 view .LVU915
	mov	r1, r4
	mov	r0, r8
	bl	clust2sect
.LVL329:
	.loc 1 1458 12 view .LVU916
	str	r0, [r6, #24]
	b	.L202
.LVL330:
.L205:
	.loc 1 1437 10 view .LVU917
	movs	r0, #2
.LVL331:
	.loc 1 1437 10 view .LVU918
	b	.L199
.LVL332:
.L206:
	.loc 1 1437 10 view .LVU919
	movs	r0, #2
.LVL333:
	.loc 1 1437 10 view .LVU920
	b	.L199
.LVL334:
.L207:
	.loc 1 1447 45 view .LVU921
	movs	r0, #2
.LVL335:
	.loc 1 1447 45 view .LVU922
	b	.L199
.LVL336:
.L208:
	.loc 1 1454 35 view .LVU923
	movs	r0, #1
.LVL337:
	.loc 1 1454 35 view .LVU924
	b	.L199
.LVL338:
.L209:
	.loc 1 1455 49 view .LVU925
	movs	r0, #2
.LVL339:
	.loc 1 1455 49 view .LVU926
	b	.L199
.LVL340:
.L211:
	.loc 1 1461 24 view .LVU927
	movs	r0, #2
	b	.L199
.LFE16:
	.size	dir_sdi, .-dir_sdi
	.section	.text.create_chain,"ax",%progbits
	.align	1
	.syntax unified
	.thumb
	.thumb_func
	.fpu fpv4-sp-d16
	.type	create_chain, %function
create_chain:
.LVL341:
.LFB15:
	.loc 1 1316 1 is_stmt 1 view -0
	@ args = 0, pretend = 0, frame = 0
	@ frame_needed = 0, uses_anonymous_args = 0
	.loc 1 1316 1 is_stmt 0 view .LVU929
	push	{r4, r5, r6, r7, r8, lr}
.LCFI21:
	mov	r7, r0
	.loc 1 1317 2 is_stmt 1 view .LVU930
	.loc 1 1318 2 view .LVU931
	.loc 1 1319 2 view .LVU932
	.loc 1 1319 9 is_stmt 0 view .LVU933
	ldr	r6, [r0]
.LVL342:
	.loc 1 1322 2 is_stmt 1 view .LVU934
	.loc 1 1322 5 is_stmt 0 view .LVU935
	mov	r8, r1
	cbnz	r1, .L216
	.loc 1 1323 3 is_stmt 1 view .LVU936
	.loc 1 1323 7 is_stmt 0 view .LVU937
	ldr	r5, [r6, #12]
.LVL343:
	.loc 1 1324 3 is_stmt 1 view .LVU938
	.loc 1 1324 6 is_stmt 0 view .LVU939
	cbz	r5, .L225
	.loc 1 1324 28 discriminator 2 view .LVU940
	ldr	r3, [r6, #20]
	.loc 1 1324 16 discriminator 2 view .LVU941
	cmp	r3, r5
	bhi	.L217
	.loc 1 1324 44 view .LVU942
	movs	r5, #1
.LVL344:
	.loc 1 1324 44 view .LVU943
	b	.L217
.LVL345:
.L216:
	.loc 1 1327 3 is_stmt 1 view .LVU944
	.loc 1 1327 8 is_stmt 0 view .LVU945
	bl	get_fat
.LVL346:
	.loc 1 1327 8 view .LVU946
	mov	r3, r0
.LVL347:
	.loc 1 1328 3 is_stmt 1 view .LVU947
	.loc 1 1328 6 is_stmt 0 view .LVU948
	cmp	r0, #1
	bls	.L227
	.loc 1 1329 3 is_stmt 1 view .LVU949
	.loc 1 1329 6 is_stmt 0 view .LVU950
	cmp	r0, #-1
	beq	.L215
	.loc 1 1330 3 is_stmt 1 view .LVU951
	.loc 1 1330 14 is_stmt 0 view .LVU952
	ldr	r2, [r6, #20]
	.loc 1 1330 6 view .LVU953
	cmp	r2, r0
	bhi	.L215
	.loc 1 1331 7 view .LVU954
	mov	r5, r8
	b	.L217
.LVL348:
.L225:
	.loc 1 1324 44 view .LVU955
	movs	r5, #1
.LVL349:
.L217:
	.loc 1 1352 3 is_stmt 1 view .LVU956
	.loc 1 1352 7 is_stmt 0 view .LVU957
	mov	r4, r5
	b	.L221
.LVL350:
.L219:
	.loc 1 1359 4 is_stmt 1 view .LVU958
	.loc 1 1359 9 is_stmt 0 view .LVU959
	mov	r1, r4
	mov	r0, r7
	bl	get_fat
.LVL351:
	.loc 1 1360 4 is_stmt 1 view .LVU960
	.loc 1 1360 7 is_stmt 0 view .LVU961
	mov	r3, r0
	cbz	r0, .L220
	.loc 1 1361 4 is_stmt 1 view .LVU962
	.loc 1 1361 7 is_stmt 0 view .LVU963
	cmp	r0, #1
	beq	.L215
	.loc 1 1361 16 discriminator 2 view .LVU964
	cmp	r0, #-1
	beq	.L215
	.loc 1 1362 4 is_stmt 1 view .LVU965
	.loc 1 1362 7 is_stmt 0 view .LVU966
	cmp	r4, r5
	beq	.L232
.LVL352:
.L221:
	.loc 1 1353 3 is_stmt 1 view .LVU967
	.loc 1 1354 4 view .LVU968
	.loc 1 1354 7 is_stmt 0 view .LVU969
	adds	r4, r4, #1
.LVL353:
	.loc 1 1355 4 is_stmt 1 view .LVU970
	.loc 1 1355 17 is_stmt 0 view .LVU971
	ldr	r3, [r6, #20]
	.loc 1 1355 7 view .LVU972
	cmp	r3, r4
	bhi	.L219
	.loc 1 1356 5 is_stmt 1 view .LVU973
.LVL354:
	.loc 1 1357 5 view .LVU974
	.loc 1 1357 8 is_stmt 0 view .LVU975
	cmp	r5, #1
	bls	.L228
	.loc 1 1356 9 view .LVU976
	movs	r4, #2
	b	.L219
.LVL355:
.L220:
	.loc 1 1366 2 is_stmt 1 view .LVU977
	.loc 1 1369 3 view .LVU978
	.loc 1 1369 9 is_stmt 0 view .LVU979
	mov	r2, #-1
	mov	r1, r4
	mov	r0, r6
.LVL356:
	.loc 1 1369 9 view .LVU980
	bl	put_fat
.LVL357:
	.loc 1 1370 3 is_stmt 1 view .LVU981
	.loc 1 1370 6 is_stmt 0 view .LVU982
	mov	r3, r0
	cbnz	r0, .L222
	.loc 1 1370 20 discriminator 1 view .LVU983
	cmp	r8, #0
	bne	.L233
.LVL358:
.L222:
	.loc 1 1375 2 is_stmt 1 view .LVU984
	.loc 1 1375 5 is_stmt 0 view .LVU985
	cbnz	r3, .L223
	.loc 1 1376 3 is_stmt 1 view .LVU986
	.loc 1 1376 17 is_stmt 0 view .LVU987
	str	r4, [r6, #12]
	.loc 1 1377 3 is_stmt 1 view .LVU988
	.loc 1 1377 9 is_stmt 0 view .LVU989
	ldr	r2, [r6, #16]
	.loc 1 1377 25 view .LVU990
	ldr	r3, [r6, #20]
.LVL359:
	.loc 1 1377 36 view .LVU991
	subs	r3, r3, #2
	.loc 1 1377 6 view .LVU992
	cmp	r2, r3
	bcs	.L224
	.loc 1 1377 41 is_stmt 1 discriminator 1 view .LVU993
	.loc 1 1377 54 is_stmt 0 discriminator 1 view .LVU994
	subs	r2, r2, #1
	str	r2, [r6, #16]
.L224:
	.loc 1 1378 3 is_stmt 1 view .LVU995
	.loc 1 1378 16 is_stmt 0 view .LVU996
	ldrb	r3, [r6, #4]	@ zero_extendqisi2
	orr	r3, r3, #1
	strb	r3, [r6, #4]
	mov	r3, r4
	b	.L215
.LVL360:
.L233:
	.loc 1 1371 4 is_stmt 1 view .LVU997
	.loc 1 1371 10 is_stmt 0 view .LVU998
	mov	r2, r4
	mov	r1, r8
	mov	r0, r6
.LVL361:
	.loc 1 1371 10 view .LVU999
	bl	put_fat
.LVL362:
	mov	r3, r0
.LVL363:
	.loc 1 1371 10 view .LVU1000
	b	.L222
.L223:
	.loc 1 1380 3 is_stmt 1 view .LVU1001
	.loc 1 1380 43 is_stmt 0 view .LVU1002
	cmp	r3, #1
	beq	.L234
	movs	r3, #1
.LVL364:
	.loc 1 1380 43 view .LVU1003
	b	.L215
.LVL365:
.L234:
	.loc 1 1380 43 view .LVU1004
	mov	r3, #-1
.LVL366:
	.loc 1 1380 43 view .LVU1005
	b	.L215
.LVL367:
.L227:
	.loc 1 1328 22 view .LVU1006
	movs	r3, #1
	b	.L215
.LVL368:
.L228:
	.loc 1 1357 27 view .LVU1007
	movs	r3, #0
	b	.L215
.LVL369:
.L232:
	.loc 1 1362 27 view .LVU1008
	movs	r3, #0
.LVL370:
.L215:
	.loc 1 1384 1 view .LVU1009
	mov	r0, r3
	pop	{r4, r5, r6, r7, r8, pc}
	.loc 1 1384 1 view .LVU1010
.LFE15:
	.size	create_chain, .-create_chain
	.section	.text.remove_chain,"ax",%progbits
	.align	1
	.syntax unified
	.thumb
	.thumb_func
	.fpu fpv4-sp-d16
	.type	remove_chain, %function
remove_chain:
.LVL371:
.LFB14:
	.loc 1 1237 1 is_stmt 1 view -0
	@ args = 0, pretend = 0, frame = 0
	@ frame_needed = 0, uses_anonymous_args = 0
	.loc 1 1237 1 is_stmt 0 view .LVU1012
	push	{r3, r4, r5, r6, r7, lr}
.LCFI22:
	mov	r6, r1
	.loc 1 1238 2 is_stmt 1 view .LVU1013
.LVL372:
	.loc 1 1239 2 view .LVU1014
	.loc 1 1240 2 view .LVU1015
	.loc 1 1240 9 is_stmt 0 view .LVU1016
	ldr	r5, [r0]
.LVL373:
	.loc 1 1248 2 is_stmt 1 view .LVU1017
	.loc 1 1248 5 is_stmt 0 view .LVU1018
	cmp	r1, #1
	bls	.L240
	mov	r7, r0
	mov	r1, r2
.LVL374:
	.loc 1 1248 28 discriminator 2 view .LVU1019
	ldr	r3, [r5, #20]
	.loc 1 1248 15 discriminator 2 view .LVU1020
	cmp	r3, r6
	bls	.L241
	.loc 1 1251 2 is_stmt 1 view .LVU1021
	.loc 1 1251 5 is_stmt 0 view .LVU1022
	cbz	r2, .L239
	.loc 1 1252 3 is_stmt 1 view .LVU1023
	.loc 1 1252 9 is_stmt 0 view .LVU1024
	mov	r2, #-1
.LVL375:
	.loc 1 1252 9 view .LVU1025
	mov	r0, r5
.LVL376:
	.loc 1 1252 9 view .LVU1026
	bl	put_fat
.LVL377:
	.loc 1 1253 3 is_stmt 1 view .LVU1027
	.loc 1 1253 6 is_stmt 0 view .LVU1028
	mov	ip, r0
	cbz	r0, .L239
	b	.L236
.LVL378:
.L238:
	.loc 1 1288 3 is_stmt 1 view .LVU1029
	.loc 1 1288 8 is_stmt 0 view .LVU1030
	mov	r6, r4
	.loc 1 1289 2 view .LVU1031
	cmp	r2, r4
	bls	.L236
.LVL379:
.L239:
	.loc 1 1257 2 is_stmt 1 view .LVU1032
	.loc 1 1258 3 view .LVU1033
	.loc 1 1258 9 is_stmt 0 view .LVU1034
	mov	r1, r6
	mov	r0, r7
	bl	get_fat
.LVL380:
	.loc 1 1259 3 is_stmt 1 view .LVU1035
	.loc 1 1259 6 is_stmt 0 view .LVU1036
	mov	r4, r0
	cbz	r0, .L242
	.loc 1 1260 3 is_stmt 1 view .LVU1037
	.loc 1 1260 6 is_stmt 0 view .LVU1038
	cmp	r0, #1
	beq	.L243
	.loc 1 1261 3 is_stmt 1 view .LVU1039
	.loc 1 1261 6 is_stmt 0 view .LVU1040
	cmp	r0, #-1
	beq	.L244
	.loc 1 1262 3 is_stmt 1 view .LVU1041
	.loc 1 1263 4 view .LVU1042
	.loc 1 1263 10 is_stmt 0 view .LVU1043
	movs	r2, #0
	mov	r1, r6
	mov	r0, r5
.LVL381:
	.loc 1 1263 10 view .LVU1044
	bl	put_fat
.LVL382:
	.loc 1 1264 4 is_stmt 1 view .LVU1045
	.loc 1 1264 7 is_stmt 0 view .LVU1046
	mov	ip, r0
	cbnz	r0, .L236
	.loc 1 1266 3 is_stmt 1 view .LVU1047
	.loc 1 1266 9 is_stmt 0 view .LVU1048
	ldr	r3, [r5, #16]
	.loc 1 1266 25 view .LVU1049
	ldr	r2, [r5, #20]
	.loc 1 1266 36 view .LVU1050
	subs	r1, r2, #2
	.loc 1 1266 6 view .LVU1051
	cmp	r3, r1
	bcs	.L238
	.loc 1 1267 4 is_stmt 1 view .LVU1052
	.loc 1 1267 17 is_stmt 0 view .LVU1053
	adds	r3, r3, #1
	str	r3, [r5, #16]
	.loc 1 1268 4 is_stmt 1 view .LVU1054
	.loc 1 1268 17 is_stmt 0 view .LVU1055
	ldrb	r3, [r5, #4]	@ zero_extendqisi2
	orr	r3, r3, #1
	strb	r3, [r5, #4]
	b	.L238
.LVL383:
.L240:
	.loc 1 1248 47 view .LVU1056
	mov	ip, #2
	b	.L236
.LVL384:
.L241:
	.loc 1 1248 47 view .LVU1057
	mov	ip, #2
.LVL385:
.L236:
	.loc 1 1303 1 view .LVU1058
	mov	r0, ip
	pop	{r3, r4, r5, r6, r7, pc}
.LVL386:
.L242:
	.loc 1 1302 9 view .LVU1059
	mov	ip, #0
	b	.L236
.L243:
	.loc 1 1260 24 view .LVU1060
	mov	ip, #2
	b	.L236
.L244:
	.loc 1 1261 33 view .LVU1061
	mov	ip, #1
	b	.L236
.LFE14:
	.size	remove_chain, .-remove_chain
	.section	.text.dir_remove,"ax",%progbits
	.align	1
	.syntax unified
	.thumb
	.thumb_func
	.fpu fpv4-sp-d16
	.type	dir_remove, %function
dir_remove:
.LVL387:
.LFB24:
	.loc 1 2351 1 is_stmt 1 view -0
	@ args = 0, pretend = 0, frame = 0
	@ frame_needed = 0, uses_anonymous_args = 0
	.loc 1 2351 1 is_stmt 0 view .LVU1063
	push	{r3, r4, r5, lr}
.LCFI23:
	mov	r4, r0
	.loc 1 2352 2 is_stmt 1 view .LVU1064
	.loc 1 2353 2 view .LVU1065
	.loc 1 2353 9 is_stmt 0 view .LVU1066
	ldr	r5, [r0]
.LVL388:
	.loc 1 2376 2 is_stmt 1 view .LVU1067
	.loc 1 2376 8 is_stmt 0 view .LVU1068
	ldr	r1, [r0, #24]
	mov	r0, r5
.LVL389:
	.loc 1 2376 8 view .LVU1069
	bl	move_window
.LVL390:
	.loc 1 2377 2 is_stmt 1 view .LVU1070
	.loc 1 2377 5 is_stmt 0 view .LVU1071
	mov	r3, r0
	cbnz	r0, .L247
	.loc 1 2378 3 is_stmt 1 view .LVU1072
	.loc 1 2378 5 is_stmt 0 view .LVU1073
	ldr	r2, [r4, #28]
	.loc 1 2378 21 view .LVU1074
	movs	r1, #229
	strb	r1, [r2]
	.loc 1 2379 3 is_stmt 1 view .LVU1075
	.loc 1 2379 13 is_stmt 0 view .LVU1076
	movs	r2, #1
	strb	r2, [r5, #3]
.L247:
	.loc 1 2383 2 is_stmt 1 view .LVU1077
	.loc 1 2384 1 is_stmt 0 view .LVU1078
	mov	r0, r3
.LVL391:
	.loc 1 2384 1 view .LVU1079
	pop	{r3, r4, r5, pc}
	.loc 1 2384 1 view .LVU1080
.LFE24:
	.size	dir_remove, .-dir_remove
	.section	.text.dir_next,"ax",%progbits
	.align	1
	.syntax unified
	.thumb
	.thumb_func
	.fpu fpv4-sp-d16
	.type	dir_next, %function
dir_next:
.LVL392:
.LFB17:
	.loc 1 1480 1 is_stmt 1 view -0
	@ args = 0, pretend = 0, frame = 0
	@ frame_needed = 0, uses_anonymous_args = 0
	.loc 1 1480 1 is_stmt 0 view .LVU1082
	push	{r4, r5, r6, r7, r8, r9, r10, lr}
.LCFI24:
	.loc 1 1481 2 is_stmt 1 view .LVU1083
	.loc 1 1482 2 view .LVU1084
	.loc 1 1482 9 is_stmt 0 view .LVU1085
	ldr	r6, [r0]
.LVL393:
	.loc 1 1484 2 is_stmt 1 view .LVU1086
	.loc 1 1487 2 view .LVU1087
	.loc 1 1487 10 is_stmt 0 view .LVU1088
	ldr	r5, [r0, #16]
.LVL394:
	.loc 1 1488 2 is_stmt 1 view .LVU1089
	.loc 1 1488 9 is_stmt 0 view .LVU1090
	ldr	r3, [r0, #24]
	.loc 1 1488 5 view .LVU1091
	cmp	r3, #0
	beq	.L257
	adds	r5, r5, #32
.LVL395:
	.loc 1 1488 16 discriminator 2 view .LVU1092
	cmp	r5, #2097152
	bcs	.L258
	mov	r8, r1
	mov	r4, r0
	.loc 1 1490 2 is_stmt 1 view .LVU1093
	.loc 1 1490 10 is_stmt 0 view .LVU1094
	ubfx	r7, r5, #0, #9
	.loc 1 1490 5 view .LVU1095
	cbnz	r7, .L251
	.loc 1 1491 3 is_stmt 1 view .LVU1096
	.loc 1 1491 11 is_stmt 0 view .LVU1097
	adds	r3, r3, #1
	str	r3, [r0, #24]
	.loc 1 1493 3 is_stmt 1 view .LVU1098
	.loc 1 1493 10 is_stmt 0 view .LVU1099
	ldr	r1, [r0, #20]
.LVL396:
	.loc 1 1493 6 view .LVU1100
	cbnz	r1, .L252
	.loc 1 1494 4 is_stmt 1 view .LVU1101
	.loc 1 1494 26 is_stmt 0 view .LVU1102
	ldrh	r3, [r6, #8]
	.loc 1 1494 7 view .LVU1103
	cmp	r3, r5, lsr #5
	bls	.L267
.LVL397:
.L251:
	.loc 1 1531 2 is_stmt 1 view .LVU1104
	.loc 1 1531 11 is_stmt 0 view .LVU1105
	str	r5, [r4, #16]
	.loc 1 1532 2 is_stmt 1 view .LVU1106
	.loc 1 1532 12 is_stmt 0 view .LVU1107
	add	r3, r6, #48
	.loc 1 1532 20 view .LVU1108
	add	r3, r3, r7
	.loc 1 1532 10 view .LVU1109
	str	r3, [r4, #28]
	.loc 1 1534 2 is_stmt 1 view .LVU1110
	.loc 1 1534 9 is_stmt 0 view .LVU1111
	movs	r0, #0
.LVL398:
.L250:
	.loc 1 1535 1 view .LVU1112
	pop	{r4, r5, r6, r7, r8, r9, r10, pc}
.LVL399:
.L267:
	.loc 1 1495 5 is_stmt 1 view .LVU1113
	.loc 1 1495 14 is_stmt 0 view .LVU1114
	movs	r3, #0
	str	r3, [r0, #24]
	.loc 1 1495 19 is_stmt 1 view .LVU1115
	.loc 1 1495 26 is_stmt 0 view .LVU1116
	movs	r0, #4
.LVL400:
	.loc 1 1495 26 view .LVU1117
	b	.L250
.LVL401:
.L252:
	.loc 1 1499 4 is_stmt 1 view .LVU1118
	.loc 1 1499 27 is_stmt 0 view .LVU1119
	ldrh	r3, [r6, #10]
	.loc 1 1499 35 view .LVU1120
	subs	r3, r3, #1
	.loc 1 1499 7 view .LVU1121
	ands	r9, r3, r5, lsr #9
	bne	.L251
	.loc 1 1500 5 is_stmt 1 view .LVU1122
	.loc 1 1500 12 is_stmt 0 view .LVU1123
	bl	get_fat
.LVL402:
	.loc 1 1500 12 view .LVU1124
	mov	r10, r0
.LVL403:
	.loc 1 1501 5 is_stmt 1 view .LVU1125
	.loc 1 1501 8 is_stmt 0 view .LVU1126
	cmp	r0, #1
	bls	.L259
	.loc 1 1502 5 is_stmt 1 view .LVU1127
	.loc 1 1502 8 is_stmt 0 view .LVU1128
	cmp	r0, #-1
	beq	.L260
	.loc 1 1503 5 is_stmt 1 view .LVU1129
	.loc 1 1503 19 is_stmt 0 view .LVU1130
	ldr	r3, [r6, #20]
	.loc 1 1503 8 view .LVU1131
	cmp	r3, r0
	bhi	.L253
	.loc 1 1505 6 is_stmt 1 view .LVU1132
	.loc 1 1505 9 is_stmt 0 view .LVU1133
	cmp	r8, #0
	beq	.L268
	.loc 1 1508 6 is_stmt 1 view .LVU1134
	.loc 1 1508 13 is_stmt 0 view .LVU1135
	ldr	r1, [r4, #20]
	mov	r0, r4
.LVL404:
	.loc 1 1508 13 view .LVU1136
	bl	create_chain
.LVL405:
	.loc 1 1509 6 is_stmt 1 view .LVU1137
	.loc 1 1509 9 is_stmt 0 view .LVU1138
	mov	r10, r0
	cmp	r0, #0
	beq	.L261
	.loc 1 1510 6 is_stmt 1 view .LVU1139
	.loc 1 1510 9 is_stmt 0 view .LVU1140
	cmp	r0, #1
	beq	.L262
	.loc 1 1511 6 is_stmt 1 view .LVU1141
	.loc 1 1511 9 is_stmt 0 view .LVU1142
	cmp	r0, #-1
	beq	.L263
	.loc 1 1513 6 is_stmt 1 view .LVU1143
	.loc 1 1514 6 view .LVU1144
	.loc 1 1514 10 is_stmt 0 view .LVU1145
	mov	r0, r6
.LVL406:
	.loc 1 1514 10 view .LVU1146
	bl	sync_window
.LVL407:
	.loc 1 1514 9 view .LVU1147
	cbz	r0, .L269
	.loc 1 1514 43 view .LVU1148
	movs	r0, #1
	b	.L250
.LVL408:
.L268:
	.loc 1 1506 7 is_stmt 1 view .LVU1149
	.loc 1 1506 16 is_stmt 0 view .LVU1150
	movs	r3, #0
	str	r3, [r4, #24]
	.loc 1 1506 21 is_stmt 1 view .LVU1151
	.loc 1 1506 28 is_stmt 0 view .LVU1152
	movs	r0, #4
.LVL409:
	.loc 1 1506 28 view .LVU1153
	b	.L250
.L269:
	.loc 1 1515 6 is_stmt 1 view .LVU1154
	mov	r2, #512
	movs	r1, #0
	add	r0, r6, #48
	bl	mem_set
.LVL410:
	.loc 1 1516 6 view .LVU1155
	.loc 1 1516 32 is_stmt 0 view .LVU1156
	mov	r1, r10
	mov	r0, r6
	bl	clust2sect
.LVL411:
	.loc 1 1516 30 view .LVU1157
	str	r0, [r6, #44]
.LVL412:
.L255:
	.loc 1 1516 60 discriminator 1 view .LVU1158
	ldrh	r3, [r6, #10]
	.loc 1 1516 6 discriminator 1 view .LVU1159
	cmp	r9, r3
	bcs	.L270
	.loc 1 1517 7 is_stmt 1 view .LVU1160
	.loc 1 1517 17 is_stmt 0 view .LVU1161
	movs	r3, #1
	strb	r3, [r6, #3]
	.loc 1 1518 7 is_stmt 1 view .LVU1162
	.loc 1 1518 11 is_stmt 0 view .LVU1163
	mov	r0, r6
	bl	sync_window
.LVL413:
	.loc 1 1518 10 view .LVU1164
	cbnz	r0, .L265
	.loc 1 1516 70 discriminator 2 view .LVU1165
	add	r9, r9, #1
.LVL414:
	.loc 1 1516 76 discriminator 2 view .LVU1166
	ldr	r3, [r6, #44]
	.loc 1 1516 85 discriminator 2 view .LVU1167
	adds	r3, r3, #1
	str	r3, [r6, #44]
	b	.L255
.L270:
	.loc 1 1520 6 is_stmt 1 view .LVU1168
	.loc 1 1520 18 is_stmt 0 view .LVU1169
	ldr	r3, [r6, #44]
	sub	r3, r3, r9
	str	r3, [r6, #44]
.LVL415:
.L253:
	.loc 1 1526 5 is_stmt 1 view .LVU1170
	.loc 1 1526 15 is_stmt 0 view .LVU1171
	str	r10, [r4, #20]
	.loc 1 1527 5 is_stmt 1 view .LVU1172
	.loc 1 1527 16 is_stmt 0 view .LVU1173
	mov	r1, r10
	mov	r0, r6
	bl	clust2sect
.LVL416:
	.loc 1 1527 14 view .LVU1174
	str	r0, [r4, #24]
	b	.L251
.LVL417:
.L257:
	.loc 1 1488 105 view .LVU1175
	movs	r0, #4
.LVL418:
	.loc 1 1488 105 view .LVU1176
	b	.L250
.LVL419:
.L258:
	.loc 1 1488 105 view .LVU1177
	movs	r0, #4
.LVL420:
	.loc 1 1488 105 view .LVU1178
	b	.L250
.LVL421:
.L259:
	.loc 1 1501 27 view .LVU1179
	movs	r0, #2
.LVL422:
	.loc 1 1501 27 view .LVU1180
	b	.L250
.LVL423:
.L260:
	.loc 1 1502 36 view .LVU1181
	movs	r0, #1
.LVL424:
	.loc 1 1502 36 view .LVU1182
	b	.L250
.LVL425:
.L261:
	.loc 1 1509 28 view .LVU1183
	movs	r0, #7
.LVL426:
	.loc 1 1509 28 view .LVU1184
	b	.L250
.LVL427:
.L262:
	.loc 1 1510 28 view .LVU1185
	movs	r0, #2
.LVL428:
	.loc 1 1510 28 view .LVU1186
	b	.L250
.LVL429:
.L263:
	.loc 1 1511 37 view .LVU1187
	movs	r0, #1
.LVL430:
	.loc 1 1511 37 view .LVU1188
	b	.L250
.LVL431:
.L265:
	.loc 1 1518 44 view .LVU1189
	movs	r0, #1
	b	.L250
.LFE17:
	.size	dir_next, .-dir_next
	.section	.text.dir_find,"ax",%progbits
	.align	1
	.syntax unified
	.thumb
	.thumb_func
	.fpu fpv4-sp-d16
	.type	dir_find, %function
dir_find:
.LVL432:
.LFB22:
	.loc 1 2169 1 is_stmt 1 view -0
	@ args = 0, pretend = 0, frame = 0
	@ frame_needed = 0, uses_anonymous_args = 0
	.loc 1 2169 1 is_stmt 0 view .LVU1191
	push	{r4, r5, r6, lr}
.LCFI25:
	mov	r4, r0
	.loc 1 2170 2 is_stmt 1 view .LVU1192
	.loc 1 2171 2 view .LVU1193
	.loc 1 2171 9 is_stmt 0 view .LVU1194
	ldr	r6, [r0]
.LVL433:
	.loc 1 2172 2 is_stmt 1 view .LVU1195
	.loc 1 2177 2 view .LVU1196
	.loc 1 2177 8 is_stmt 0 view .LVU1197
	movs	r1, #0
	bl	dir_sdi
.LVL434:
	.loc 1 2178 2 is_stmt 1 view .LVU1198
	.loc 1 2178 5 is_stmt 0 view .LVU1199
	mov	r5, r0
	cbz	r0, .L274
.LVL435:
.L272:
	.loc 1 2234 1 view .LVU1200
	mov	r0, r5
	pop	{r4, r5, r6, pc}
.LVL436:
.L273:
	.loc 1 2230 3 is_stmt 1 view .LVU1201
	.loc 1 2230 9 is_stmt 0 view .LVU1202
	movs	r1, #0
	mov	r0, r4
	bl	dir_next
.LVL437:
	.loc 1 2231 2 view .LVU1203
	mov	r5, r0
	cmp	r0, #0
	bne	.L272
.L274:
	.loc 1 2200 2 is_stmt 1 view .LVU1204
	.loc 1 2201 3 view .LVU1205
	.loc 1 2201 9 is_stmt 0 view .LVU1206
	ldr	r1, [r4, #24]
	mov	r0, r6
.LVL438:
	.loc 1 2201 9 view .LVU1207
	bl	move_window
.LVL439:
	.loc 1 2202 3 is_stmt 1 view .LVU1208
	.loc 1 2202 6 is_stmt 0 view .LVU1209
	mov	r5, r0
	cmp	r0, #0
	bne	.L272
	.loc 1 2203 3 is_stmt 1 view .LVU1210
	.loc 1 2203 9 is_stmt 0 view .LVU1211
	ldr	r0, [r4, #28]
.LVL440:
	.loc 1 2203 5 view .LVU1212
	ldrb	r3, [r0]	@ zero_extendqisi2
.LVL441:
	.loc 1 2204 3 is_stmt 1 view .LVU1213
	.loc 1 2204 6 is_stmt 0 view .LVU1214
	cbz	r3, .L275
	.loc 1 2227 3 is_stmt 1 view .LVU1215
	.loc 1 2227 25 is_stmt 0 view .LVU1216
	ldrb	r3, [r0, #11]	@ zero_extendqisi2
.LVL442:
	.loc 1 2227 36 view .LVU1217
	and	r3, r3, #63
	.loc 1 2227 16 view .LVU1218
	strb	r3, [r4, #6]
.LVL443:
	.loc 1 2228 3 is_stmt 1 view .LVU1219
	.loc 1 2228 16 is_stmt 0 view .LVU1220
	ldrb	r3, [r0, #11]	@ zero_extendqisi2
	.loc 1 2228 6 view .LVU1221
	tst	r3, #8
	bne	.L273
	.loc 1 2228 41 discriminator 1 view .LVU1222
	movs	r2, #11
	add	r1, r4, #32
	bl	mem_cmp
.LVL444:
	.loc 1 2228 37 discriminator 1 view .LVU1223
	cmp	r0, #0
	bne	.L273
	b	.L272
.LVL445:
.L275:
	.loc 1 2204 21 view .LVU1224
	movs	r5, #4
	b	.L272
.LFE22:
	.size	dir_find, .-dir_find
	.section	.text.follow_path,"ax",%progbits
	.align	1
	.syntax unified
	.thumb
	.thumb_func
	.fpu fpv4-sp-d16
	.type	follow_path, %function
follow_path:
.LVL446:
.LFB27:
	.loc 1 2769 1 is_stmt 1 view -0
	@ args = 0, pretend = 0, frame = 8
	@ frame_needed = 0, uses_anonymous_args = 0
	.loc 1 2769 1 is_stmt 0 view .LVU1226
	push	{r4, r5, lr}
.LCFI26:
	sub	sp, sp, #12
.LCFI27:
	mov	r4, r0
	str	r1, [sp, #4]
	.loc 1 2770 2 is_stmt 1 view .LVU1227
	.loc 1 2771 2 view .LVU1228
	.loc 1 2772 2 view .LVU1229
.LVL447:
	.loc 1 2773 2 view .LVU1230
	.loc 1 2773 9 is_stmt 0 view .LVU1231
	ldr	r5, [r0]
.LVL448:
	.loc 1 2782 3 is_stmt 1 view .LVU1232
	.loc 1 2782 9 is_stmt 0 view .LVU1233
	b	.L278
.L279:
	.loc 1 2782 41 is_stmt 1 discriminator 4 view .LVU1234
	.loc 1 2782 45 is_stmt 0 discriminator 4 view .LVU1235
	adds	r3, r3, #1
	str	r3, [sp, #4]
.L278:
	.loc 1 2782 10 discriminator 1 view .LVU1236
	ldr	r3, [sp, #4]
	ldrb	r2, [r3]	@ zero_extendqisi2
	.loc 1 2782 9 discriminator 1 view .LVU1237
	cmp	r2, #47
	beq	.L279
	.loc 1 2782 23 discriminator 3 view .LVU1238
	cmp	r2, #92
	beq	.L279
	.loc 1 2783 3 is_stmt 1 view .LVU1239
	.loc 1 2783 15 is_stmt 0 view .LVU1240
	movs	r2, #0
	str	r2, [r4, #8]
	.loc 1 2799 2 is_stmt 1 view .LVU1241
	.loc 1 2799 12 is_stmt 0 view .LVU1242
	ldrb	r3, [r3]	@ zero_extendqisi2
	.loc 1 2799 5 view .LVU1243
	cmp	r3, #31
	bhi	.L280
	.loc 1 2800 3 is_stmt 1 view .LVU1244
	.loc 1 2800 18 is_stmt 0 view .LVU1245
	movs	r3, #128
	strb	r3, [r4, #43]
	.loc 1 2801 3 is_stmt 1 view .LVU1246
	.loc 1 2801 9 is_stmt 0 view .LVU1247
	mov	r1, r2
.LVL449:
	.loc 1 2801 9 view .LVU1248
	mov	r0, r4
.LVL450:
	.loc 1 2801 9 view .LVU1249
	bl	dir_sdi
.LVL451:
	mov	r3, r0
.LVL452:
.L281:
	.loc 1 2842 2 is_stmt 1 view .LVU1250
	.loc 1 2843 1 is_stmt 0 view .LVU1251
	mov	r0, r3
	add	sp, sp, #12
.LCFI28:
	@ sp needed
	pop	{r4, r5, pc}
.LVL453:
.L286:
.LCFI29:
	.loc 1 2810 5 is_stmt 1 view .LVU1252
	.loc 1 2810 8 is_stmt 0 view .LVU1253
	cmp	r0, #4
	bne	.L281
	.loc 1 2811 6 is_stmt 1 view .LVU1254
	.loc 1 2816 7 view .LVU1255
	.loc 1 2816 10 is_stmt 0 view .LVU1256
	tst	r2, #4
	bne	.L281
	.loc 1 2816 32 view .LVU1257
	movs	r3, #5
	b	.L281
.L287:
	.loc 1 2837 5 is_stmt 1 view .LVU1258
	.loc 1 2837 32 is_stmt 0 view .LVU1259
	add	r1, r5, #48
	.loc 1 2837 44 view .LVU1260
	ldr	r3, [r4, #16]
	.loc 1 2837 51 view .LVU1261
	ubfx	r3, r3, #0, #9
	.loc 1 2837 19 view .LVU1262
	add	r1, r1, r3
	mov	r0, r5
.LVL454:
	.loc 1 2837 19 view .LVU1263
	bl	ld_clust
.LVL455:
	.loc 1 2837 17 view .LVU1264
	str	r0, [r4, #8]
.L280:
	.loc 1 2804 3 is_stmt 1 view .LVU1265
	.loc 1 2805 4 view .LVU1266
	.loc 1 2805 10 is_stmt 0 view .LVU1267
	add	r1, sp, #4
	mov	r0, r4
	bl	create_name
.LVL456:
	.loc 1 2806 4 is_stmt 1 view .LVU1268
	.loc 1 2806 7 is_stmt 0 view .LVU1269
	mov	r3, r0
	cmp	r0, #0
	bne	.L281
	.loc 1 2807 4 is_stmt 1 view .LVU1270
	.loc 1 2807 10 is_stmt 0 view .LVU1271
	mov	r0, r4
.LVL457:
	.loc 1 2807 10 view .LVU1272
	bl	dir_find
.LVL458:
	.loc 1 2808 4 is_stmt 1 view .LVU1273
	.loc 1 2808 7 is_stmt 0 view .LVU1274
	ldrb	r2, [r4, #43]	@ zero_extendqisi2
.LVL459:
	.loc 1 2809 4 is_stmt 1 view .LVU1275
	.loc 1 2809 7 is_stmt 0 view .LVU1276
	mov	r3, r0
	cmp	r0, #0
	bne	.L286
	.loc 1 2821 4 is_stmt 1 view .LVU1277
	.loc 1 2821 7 is_stmt 0 view .LVU1278
	tst	r2, #4
	bne	.L281
	.loc 1 2823 4 is_stmt 1 view .LVU1279
	.loc 1 2823 13 is_stmt 0 view .LVU1280
	ldrb	r3, [r4, #6]	@ zero_extendqisi2
	.loc 1 2823 7 view .LVU1281
	tst	r3, #16
	bne	.L287
	.loc 1 2824 9 view .LVU1282
	movs	r3, #5
	b	.L281
.LFE27:
	.size	follow_path, .-follow_path
	.section	.text.dir_alloc,"ax",%progbits
	.align	1
	.syntax unified
	.thumb
	.thumb_func
	.fpu fpv4-sp-d16
	.type	dir_alloc, %function
dir_alloc:
.LVL460:
.LFB18:
	.loc 1 1550 1 is_stmt 1 view -0
	@ args = 0, pretend = 0, frame = 0
	@ frame_needed = 0, uses_anonymous_args = 0
	.loc 1 1550 1 is_stmt 0 view .LVU1284
	push	{r3, r4, r5, r6, r7, lr}
.LCFI30:
	mov	r4, r0
	mov	r7, r1
	.loc 1 1551 2 is_stmt 1 view .LVU1285
	.loc 1 1552 2 view .LVU1286
	.loc 1 1553 2 view .LVU1287
	.loc 1 1553 9 is_stmt 0 view .LVU1288
	ldr	r6, [r0]
.LVL461:
	.loc 1 1556 2 is_stmt 1 view .LVU1289
	.loc 1 1556 8 is_stmt 0 view .LVU1290
	movs	r1, #0
.LVL462:
	.loc 1 1556 8 view .LVU1291
	bl	dir_sdi
.LVL463:
	.loc 1 1557 2 is_stmt 1 view .LVU1292
	.loc 1 1557 5 is_stmt 0 view .LVU1293
	mov	r2, r0
	cbnz	r0, .L289
	.loc 1 1558 5 view .LVU1294
	movs	r5, #0
	b	.L292
.LVL464:
.L290:
	.loc 1 1567 5 is_stmt 1 view .LVU1295
	.loc 1 1567 8 is_stmt 0 view .LVU1296
	adds	r5, r5, #1
.LVL465:
	.loc 1 1567 8 view .LVU1297
	cmp	r5, r7
	beq	.L289
.LVL466:
.L291:
	.loc 1 1571 4 is_stmt 1 view .LVU1298
	.loc 1 1571 10 is_stmt 0 view .LVU1299
	movs	r1, #1
	mov	r0, r4
.LVL467:
	.loc 1 1571 10 view .LVU1300
	bl	dir_next
.LVL468:
	.loc 1 1572 3 view .LVU1301
	mov	r2, r0
	cbnz	r0, .L289
.LVL469:
.L292:
	.loc 1 1559 3 is_stmt 1 view .LVU1302
	.loc 1 1560 4 view .LVU1303
	.loc 1 1560 10 is_stmt 0 view .LVU1304
	ldr	r1, [r4, #24]
	mov	r0, r6
.LVL470:
	.loc 1 1560 10 view .LVU1305
	bl	move_window
.LVL471:
	.loc 1 1561 4 is_stmt 1 view .LVU1306
	.loc 1 1561 7 is_stmt 0 view .LVU1307
	mov	r2, r0
	cbnz	r0, .L289
	.loc 1 1565 4 is_stmt 1 view .LVU1308
	.loc 1 1565 10 is_stmt 0 view .LVU1309
	ldr	r3, [r4, #28]
	.loc 1 1565 15 view .LVU1310
	ldrb	r3, [r3]	@ zero_extendqisi2
	.loc 1 1565 7 view .LVU1311
	cmp	r3, #229
	beq	.L290
	.loc 1 1565 34 discriminator 1 view .LVU1312
	cmp	r3, #0
	beq	.L290
	.loc 1 1569 7 view .LVU1313
	movs	r5, #0
.LVL472:
	.loc 1 1569 7 view .LVU1314
	b	.L291
.L289:
.LVL473:
	.loc 1 1575 2 is_stmt 1 view .LVU1315
	.loc 1 1575 5 is_stmt 0 view .LVU1316
	cmp	r2, #4
	beq	.L297
.LVL474:
.L293:
	.loc 1 1576 2 is_stmt 1 view .LVU1317
	.loc 1 1577 1 is_stmt 0 view .LVU1318
	mov	r0, r2
	pop	{r3, r4, r5, r6, r7, pc}
.LVL475:
.L297:
	.loc 1 1575 29 view .LVU1319
	movs	r2, #7
.LVL476:
	.loc 1 1575 29 view .LVU1320
	b	.L293
.LFE18:
	.size	dir_alloc, .-dir_alloc
	.section	.text.dir_register,"ax",%progbits
	.align	1
	.syntax unified
	.thumb
	.thumb_func
	.fpu fpv4-sp-d16
	.type	dir_register, %function
dir_register:
.LVL477:
.LFB23:
	.loc 1 2248 1 is_stmt 1 view -0
	@ args = 0, pretend = 0, frame = 0
	@ frame_needed = 0, uses_anonymous_args = 0
	.loc 1 2248 1 is_stmt 0 view .LVU1322
	push	{r4, r5, r6, lr}
.LCFI31:
	mov	r4, r0
	.loc 1 2249 2 is_stmt 1 view .LVU1323
	.loc 1 2250 2 view .LVU1324
	.loc 1 2250 9 is_stmt 0 view .LVU1325
	ldr	r6, [r0]
.LVL478:
	.loc 1 2318 2 is_stmt 1 view .LVU1326
	.loc 1 2318 8 is_stmt 0 view .LVU1327
	movs	r1, #1
	bl	dir_alloc
.LVL479:
	.loc 1 2323 2 is_stmt 1 view .LVU1328
	.loc 1 2323 5 is_stmt 0 view .LVU1329
	mov	r5, r0
	cbz	r0, .L301
.LVL480:
.L299:
	.loc 1 2335 2 is_stmt 1 view .LVU1330
	.loc 1 2336 1 is_stmt 0 view .LVU1331
	mov	r0, r5
	pop	{r4, r5, r6, pc}
.LVL481:
.L301:
	.loc 1 2324 3 is_stmt 1 view .LVU1332
	.loc 1 2324 9 is_stmt 0 view .LVU1333
	ldr	r1, [r4, #24]
	mov	r0, r6
.LVL482:
	.loc 1 2324 9 view .LVU1334
	bl	move_window
.LVL483:
	.loc 1 2325 3 is_stmt 1 view .LVU1335
	.loc 1 2325 6 is_stmt 0 view .LVU1336
	mov	r5, r0
	cmp	r0, #0
	bne	.L299
	.loc 1 2326 4 is_stmt 1 view .LVU1337
	movs	r2, #32
	movs	r1, #0
	ldr	r0, [r4, #28]
.LVL484:
	.loc 1 2326 4 is_stmt 0 view .LVU1338
	bl	mem_set
.LVL485:
	.loc 1 2327 4 is_stmt 1 view .LVU1339
	movs	r2, #11
	add	r1, r4, #32
	ldr	r0, [r4, #28]
	bl	mem_cpy
.LVL486:
	.loc 1 2331 4 view .LVU1340
	.loc 1 2331 14 is_stmt 0 view .LVU1341
	movs	r3, #1
	strb	r3, [r6, #3]
	b	.L299
.LFE23:
	.size	dir_register, .-dir_register
	.section	.text.dir_read,"ax",%progbits
	.align	1
	.syntax unified
	.thumb
	.thumb_func
	.fpu fpv4-sp-d16
	.type	dir_read, %function
dir_read:
.LVL487:
.LFB21:
	.loc 1 2093 1 is_stmt 1 view -0
	@ args = 0, pretend = 0, frame = 0
	@ frame_needed = 0, uses_anonymous_args = 0
	.loc 1 2093 1 is_stmt 0 view .LVU1343
	push	{r3, r4, r5, r6, r7, lr}
.LCFI32:
	mov	r4, r0
	mov	r6, r1
	.loc 1 2094 2 is_stmt 1 view .LVU1344
.LVL488:
	.loc 1 2095 2 view .LVU1345
	.loc 1 2095 9 is_stmt 0 view .LVU1346
	ldr	r5, [r0]
.LVL489:
	.loc 1 2096 2 is_stmt 1 view .LVU1347
	.loc 1 2101 2 view .LVU1348
	.loc 1 2094 10 is_stmt 0 view .LVU1349
	movs	r7, #4
	.loc 1 2101 8 view .LVU1350
	b	.L303
.LVL490:
.L305:
	.loc 1 2149 3 is_stmt 1 view .LVU1351
	.loc 1 2149 9 is_stmt 0 view .LVU1352
	movs	r1, #0
	mov	r0, r4
.LVL491:
	.loc 1 2149 9 view .LVU1353
	bl	dir_next
.LVL492:
	.loc 1 2150 3 is_stmt 1 view .LVU1354
	.loc 1 2150 6 is_stmt 0 view .LVU1355
	mov	r7, r0
	cbnz	r0, .L304
.LVL493:
.L303:
	.loc 1 2101 11 view .LVU1356
	ldr	r1, [r4, #24]
	.loc 1 2101 8 view .LVU1357
	cbz	r1, .L304
	.loc 1 2102 3 is_stmt 1 view .LVU1358
	.loc 1 2102 9 is_stmt 0 view .LVU1359
	mov	r0, r5
	bl	move_window
.LVL494:
	.loc 1 2103 3 is_stmt 1 view .LVU1360
	.loc 1 2103 6 is_stmt 0 view .LVU1361
	mov	r7, r0
	cbnz	r0, .L304
	.loc 1 2104 3 is_stmt 1 view .LVU1362
	.loc 1 2104 9 is_stmt 0 view .LVU1363
	ldr	r3, [r4, #28]
	.loc 1 2104 5 view .LVU1364
	ldrb	r2, [r3]	@ zero_extendqisi2
.LVL495:
	.loc 1 2105 3 is_stmt 1 view .LVU1365
	.loc 1 2105 6 is_stmt 0 view .LVU1366
	cbz	r2, .L308
	.loc 1 2123 4 is_stmt 1 view .LVU1367
	.loc 1 2123 30 is_stmt 0 view .LVU1368
	ldrb	r3, [r3, #11]	@ zero_extendqisi2
	.loc 1 2123 21 view .LVU1369
	and	r3, r3, #63
.LVL496:
	.loc 1 2123 17 view .LVU1370
	strb	r3, [r4, #6]
	.loc 1 2144 4 is_stmt 1 view .LVU1371
	.loc 1 2144 7 is_stmt 0 view .LVU1372
	cmp	r2, #229
	beq	.L305
	.loc 1 2144 18 discriminator 1 view .LVU1373
	cmp	r2, #46
	beq	.L305
	.loc 1 2144 30 discriminator 2 view .LVU1374
	cmp	r3, #15
	beq	.L305
	.loc 1 2144 57 discriminator 3 view .LVU1375
	bic	r3, r3, #32
.LVL497:
	.loc 1 2144 48 discriminator 3 view .LVU1376
	cmp	r3, #8
	ite	ne
	movne	r3, #0
	moveq	r3, #1
	.loc 1 2144 45 discriminator 3 view .LVU1377
	cmp	r3, r6
	bne	.L305
	b	.L304
.LVL498:
.L308:
	.loc 1 2105 21 view .LVU1378
	movs	r7, #4
.LVL499:
.L304:
	.loc 1 2153 2 is_stmt 1 view .LVU1379
	.loc 1 2153 5 is_stmt 0 view .LVU1380
	cbz	r7, .L307
	.loc 1 2153 20 is_stmt 1 discriminator 1 view .LVU1381
	.loc 1 2153 29 is_stmt 0 discriminator 1 view .LVU1382
	movs	r3, #0
	str	r3, [r4, #24]
.L307:
	.loc 1 2154 2 is_stmt 1 view .LVU1383
	.loc 1 2155 1 is_stmt 0 view .LVU1384
	mov	r0, r7
	pop	{r3, r4, r5, r6, r7, pc}
	.loc 1 2155 1 view .LVU1385
.LFE21:
	.size	dir_read, .-dir_read
	.section	.text.sync_fs,"ax",%progbits
	.align	1
	.syntax unified
	.thumb
	.thumb_func
	.fpu fpv4-sp-d16
	.type	sync_fs, %function
sync_fs:
.LVL500:
.LFB10:
	.loc 1 932 1 is_stmt 1 view -0
	@ args = 0, pretend = 0, frame = 0
	@ frame_needed = 0, uses_anonymous_args = 0
	.loc 1 932 1 is_stmt 0 view .LVU1387
	push	{r4, r5, r6, lr}
.LCFI33:
	mov	r4, r0
	.loc 1 933 2 is_stmt 1 view .LVU1388
	.loc 1 936 2 view .LVU1389
	.loc 1 936 8 is_stmt 0 view .LVU1390
	bl	sync_window
.LVL501:
	.loc 1 937 2 is_stmt 1 view .LVU1391
	.loc 1 937 5 is_stmt 0 view .LVU1392
	mov	r5, r0
	cbnz	r0, .L311
	.loc 1 939 3 is_stmt 1 view .LVU1393
	.loc 1 939 9 is_stmt 0 view .LVU1394
	ldrb	r3, [r4]	@ zero_extendqisi2
	.loc 1 939 6 view .LVU1395
	cmp	r3, #3
	beq	.L315
.LVL502:
.L312:
	.loc 1 953 3 is_stmt 1 view .LVU1396
	.loc 1 953 7 is_stmt 0 view .LVU1397
	movs	r2, #0
	mov	r1, r2
	ldrb	r0, [r4, #1]	@ zero_extendqisi2
	bl	disk_ioctl
.LVL503:
	.loc 1 953 6 view .LVU1398
	cbz	r0, .L311
	.loc 1 953 56 view .LVU1399
	movs	r5, #1
.L311:
.LVL504:
	.loc 1 956 2 is_stmt 1 view .LVU1400
	.loc 1 957 1 is_stmt 0 view .LVU1401
	mov	r0, r5
	pop	{r4, r5, r6, pc}
.LVL505:
.L315:
	.loc 1 939 36 discriminator 1 view .LVU1402
	ldrb	r3, [r4, #4]	@ zero_extendqisi2
	.loc 1 939 31 discriminator 1 view .LVU1403
	cmp	r3, #1
	bne	.L312
	.loc 1 941 4 is_stmt 1 view .LVU1404
	.loc 1 941 14 is_stmt 0 view .LVU1405
	add	r6, r4, #48
	.loc 1 941 4 view .LVU1406
	mov	r2, #512
	movs	r1, #0
	mov	r0, r6
.LVL506:
	.loc 1 941 4 view .LVU1407
	bl	mem_set
.LVL507:
	.loc 1 942 4 is_stmt 1 view .LVU1408
	movw	r1, #43605
	addw	r0, r4, #558
	bl	st_word
.LVL508:
	.loc 1 943 4 view .LVU1409
	ldr	r1, .L316
	mov	r0, r6
	bl	st_dword
.LVL509:
	.loc 1 944 4 view .LVU1410
	ldr	r1, .L316+4
	add	r0, r4, #532
	bl	st_dword
.LVL510:
	.loc 1 945 4 view .LVU1411
	ldr	r1, [r4, #16]
	add	r0, r4, #536
	bl	st_dword
.LVL511:
	.loc 1 946 4 view .LVU1412
	ldr	r1, [r4, #12]
	add	r0, r4, #540
	bl	st_dword
.LVL512:
	.loc 1 948 4 view .LVU1413
	.loc 1 948 20 is_stmt 0 view .LVU1414
	ldr	r2, [r4, #28]
	.loc 1 948 30 view .LVU1415
	adds	r2, r2, #1
	.loc 1 948 16 view .LVU1416
	str	r2, [r4, #44]
	.loc 1 949 4 is_stmt 1 view .LVU1417
	movs	r3, #1
	mov	r1, r6
	ldrb	r0, [r4, #1]	@ zero_extendqisi2
	bl	disk_write
.LVL513:
	.loc 1 950 4 view .LVU1418
	.loc 1 950 17 is_stmt 0 view .LVU1419
	movs	r3, #0
	strb	r3, [r4, #4]
	b	.L312
.L317:
	.align	2
.L316:
	.word	1096897106
	.word	1631679090
.LFE10:
	.size	sync_fs, .-sync_fs
	.section	.text.f_mount,"ax",%progbits
	.align	1
	.global	f_mount
	.syntax unified
	.thumb
	.thumb_func
	.fpu fpv4-sp-d16
	.type	f_mount, %function
f_mount:
.LVL514:
.LFB32:
	.loc 1 3202 1 is_stmt 1 view -0
	@ args = 0, pretend = 0, frame = 16
	@ frame_needed = 0, uses_anonymous_args = 0
	.loc 1 3202 1 is_stmt 0 view .LVU1421
	push	{r4, lr}
.LCFI34:
	sub	sp, sp, #16
.LCFI35:
	str	r0, [sp, #4]
	str	r1, [sp]
	mov	r4, r2
	.loc 1 3203 2 is_stmt 1 view .LVU1422
	.loc 1 3204 2 view .LVU1423
	.loc 1 3205 2 view .LVU1424
	.loc 1 3206 2 view .LVU1425
	.loc 1 3206 15 is_stmt 0 view .LVU1426
	str	r1, [sp, #12]
	.loc 1 3210 2 is_stmt 1 view .LVU1427
	.loc 1 3210 8 is_stmt 0 view .LVU1428
	add	r0, sp, #12
.LVL515:
	.loc 1 3210 8 view .LVU1429
	bl	get_ldnumber
.LVL516:
	.loc 1 3211 2 is_stmt 1 view .LVU1430
	.loc 1 3211 5 is_stmt 0 view .LVU1431
	cmp	r0, #0
	.loc 1 3211 5 view .LVU1432
	blt	.L322
	.loc 1 3212 2 is_stmt 1 view .LVU1433
	.loc 1 3212 6 is_stmt 0 view .LVU1434
	ldr	r3, .L327
	ldr	r3, [r3, r0, lsl #2]
.LVL517:
	.loc 1 3214 2 is_stmt 1 view .LVU1435
	.loc 1 3214 5 is_stmt 0 view .LVU1436
	cbz	r3, .L320
	.loc 1 3221 3 is_stmt 1 view .LVU1437
	.loc 1 3221 16 is_stmt 0 view .LVU1438
	movs	r2, #0
	strb	r2, [r3]
.L320:
	.loc 1 3224 2 is_stmt 1 view .LVU1439
	.loc 1 3224 6 is_stmt 0 view .LVU1440
	ldr	r3, [sp, #4]
.LVL518:
	.loc 1 3224 5 view .LVU1441
	cbz	r3, .L321
	.loc 1 3225 3 is_stmt 1 view .LVU1442
	.loc 1 3225 15 is_stmt 0 view .LVU1443
	movs	r2, #0
	strb	r2, [r3]
.L321:
	.loc 1 3230 2 is_stmt 1 view .LVU1444
	.loc 1 3230 13 is_stmt 0 view .LVU1445
	ldr	r3, [sp, #4]
	ldr	r2, .L327
	str	r3, [r2, r0, lsl #2]
	.loc 1 3232 2 is_stmt 1 view .LVU1446
	.loc 1 3232 5 is_stmt 0 view .LVU1447
	cbz	r3, .L323
	.loc 1 3232 10 discriminator 2 view .LVU1448
	cmp	r4, #1
	beq	.L326
	.loc 1 3232 30 view .LVU1449
	movs	r0, #0
.LVL519:
.L319:
	.loc 1 3236 1 view .LVU1450
	add	sp, sp, #16
.LCFI36:
	@ sp needed
	pop	{r4, pc}
.LVL520:
.L326:
.LCFI37:
	.loc 1 3234 2 is_stmt 1 view .LVU1451
	.loc 1 3234 8 is_stmt 0 view .LVU1452
	movs	r2, #0
	add	r1, sp, #4
	mov	r0, sp
.LVL521:
	.loc 1 3234 8 view .LVU1453
	bl	find_volume
.LVL522:
	.loc 1 3235 2 is_stmt 1 view .LVU1454
	b	.L319
.LVL523:
.L322:
	.loc 1 3211 22 is_stmt 0 view .LVU1455
	movs	r0, #11
.LVL524:
	.loc 1 3211 22 view .LVU1456
	b	.L319
.LVL525:
.L323:
	.loc 1 3232 30 view .LVU1457
	movs	r0, #0
.LVL526:
	.loc 1 3232 30 view .LVU1458
	b	.L319
.L328:
	.align	2
.L327:
	.word	.LANCHOR0
.LFE32:
	.size	f_mount, .-f_mount
	.section	.text.f_open,"ax",%progbits
	.align	1
	.global	f_open
	.syntax unified
	.thumb
	.thumb_func
	.fpu fpv4-sp-d16
	.type	f_open, %function
f_open:
.LVL527:
.LFB33:
	.loc 1 3250 1 is_stmt 1 view -0
	@ args = 0, pretend = 0, frame = 56
	@ frame_needed = 0, uses_anonymous_args = 0
	.loc 1 3250 1 is_stmt 0 view .LVU1460
	push	{r4, r5, r6, r7, r8, r9, lr}
.LCFI38:
	sub	sp, sp, #60
.LCFI39:
	str	r1, [sp, #4]
	.loc 1 3251 2 is_stmt 1 view .LVU1461
	.loc 1 3252 2 view .LVU1462
	.loc 1 3253 2 view .LVU1463
	.loc 1 3255 2 view .LVU1464
	.loc 1 3256 2 view .LVU1465
	.loc 1 3261 2 view .LVU1466
	.loc 1 3261 5 is_stmt 0 view .LVU1467
	cmp	r0, #0
	beq	.L346
	mov	r5, r0
	mov	r6, r2
	.loc 1 3264 2 is_stmt 1 view .LVU1468
	.loc 1 3264 7 is_stmt 0 view .LVU1469
	and	r7, r2, #63
.LVL528:
	.loc 1 3265 2 is_stmt 1 view .LVU1470
	.loc 1 3265 8 is_stmt 0 view .LVU1471
	mov	r2, r7
	add	r1, sp, #8
.LVL529:
	.loc 1 3265 8 view .LVU1472
	add	r0, sp, #4
.LVL530:
	.loc 1 3265 8 view .LVU1473
	bl	find_volume
.LVL531:
	.loc 1 3266 2 is_stmt 1 view .LVU1474
	.loc 1 3266 5 is_stmt 0 view .LVU1475
	mov	r4, r0
	cbz	r0, .L357
.LVL532:
.L331:
	.loc 1 3431 16 is_stmt 1 view .LVU1476
	.loc 1 3434 2 view .LVU1477
	.loc 1 3434 5 is_stmt 0 view .LVU1478
	cbz	r4, .L330
.LVL533:
.L345:
	.loc 1 3434 20 is_stmt 1 discriminator 1 view .LVU1479
	.loc 1 3434 31 is_stmt 0 discriminator 1 view .LVU1480
	movs	r3, #0
	str	r3, [r5]
.LVL534:
.L330:
	.loc 1 3437 1 view .LVU1481
	mov	r0, r4
	add	sp, sp, #60
.LCFI40:
	@ sp needed
	pop	{r4, r5, r6, r7, r8, r9, pc}
.LVL535:
.L357:
.LCFI41:
	.loc 1 3267 3 is_stmt 1 view .LVU1482
	.loc 1 3267 13 is_stmt 0 view .LVU1483
	ldr	r3, [sp, #8]
	str	r3, [sp, #12]
	.loc 1 3268 18 is_stmt 1 view .LVU1484
	.loc 1 3269 3 view .LVU1485
	.loc 1 3269 9 is_stmt 0 view .LVU1486
	ldr	r1, [sp, #4]
	add	r0, sp, #12
.LVL536:
	.loc 1 3269 9 view .LVU1487
	bl	follow_path
.LVL537:
	.loc 1 3271 3 is_stmt 1 view .LVU1488
	.loc 1 3271 6 is_stmt 0 view .LVU1489
	mov	r4, r0
	cbnz	r0, .L332
	.loc 1 3272 4 is_stmt 1 view .LVU1490
	.loc 1 3272 8 is_stmt 0 view .LVU1491
	ldrsb	r3, [sp, #55]
	.loc 1 3272 7 view .LVU1492
	cmp	r3, #0
	blt	.L358
.L332:
.LVL538:
	.loc 1 3282 3 is_stmt 1 view .LVU1493
	.loc 1 3282 6 is_stmt 0 view .LVU1494
	tst	r6, #28
	beq	.L333
	.loc 1 3283 4 is_stmt 1 view .LVU1495
	.loc 1 3283 7 is_stmt 0 view .LVU1496
	cmp	r4, #0
	beq	.L334
	.loc 1 3284 5 is_stmt 1 view .LVU1497
	.loc 1 3284 8 is_stmt 0 view .LVU1498
	cmp	r4, #4
	beq	.L359
.L335:
	.loc 1 3290 5 is_stmt 1 view .LVU1499
	.loc 1 3290 10 is_stmt 0 view .LVU1500
	orr	r7, r7, #8
.LVL539:
.L336:
	.loc 1 3299 4 is_stmt 1 view .LVU1501
	.loc 1 3299 7 is_stmt 0 view .LVU1502
	cmp	r4, #0
	bne	.L337
	.loc 1 3299 21 discriminator 1 view .LVU1503
	tst	r7, #8
	beq	.L337
	.loc 1 3300 5 is_stmt 1 view .LVU1504
.LVL540:
	.loc 1 3327 6 view .LVU1505
	ldr	r6, .L362
	mov	r1, r6
	ldr	r0, [sp, #40]
	adds	r0, r0, #14
	bl	st_dword
.LVL541:
	.loc 1 3328 6 view .LVU1506
	mov	r1, r6
	ldr	r0, [sp, #40]
	adds	r0, r0, #22
	bl	st_dword
.LVL542:
	.loc 1 3329 6 view .LVU1507
	.loc 1 3329 23 is_stmt 0 view .LVU1508
	ldr	r3, [sp, #40]
	movs	r2, #32
	strb	r2, [r3, #11]
	.loc 1 3330 6 is_stmt 1 view .LVU1509
	.loc 1 3330 11 is_stmt 0 view .LVU1510
	ldr	r6, [sp, #8]
	.loc 1 3330 26 view .LVU1511
	ldr	r8, [sp, #40]
	.loc 1 3330 11 view .LVU1512
	mov	r1, r8
	mov	r0, r6
	bl	ld_clust
.LVL543:
	mov	r9, r0
.LVL544:
	.loc 1 3331 6 is_stmt 1 view .LVU1513
	movs	r2, #0
	mov	r1, r8
	mov	r0, r6
.LVL545:
	.loc 1 3331 6 is_stmt 0 view .LVU1514
	bl	st_clust
.LVL546:
	.loc 1 3332 6 is_stmt 1 view .LVU1515
	movs	r1, #0
	ldr	r0, [sp, #40]
	adds	r0, r0, #28
	bl	st_dword
.LVL547:
	.loc 1 3333 6 view .LVU1516
	.loc 1 3333 16 is_stmt 0 view .LVU1517
	ldr	r3, [sp, #8]
	movs	r2, #1
	strb	r2, [r3, #3]
	.loc 1 3335 6 is_stmt 1 view .LVU1518
	.loc 1 3335 9 is_stmt 0 view .LVU1519
	cmp	r9, #0
	beq	.L337
	.loc 1 3336 7 is_stmt 1 view .LVU1520
	.loc 1 3336 14 is_stmt 0 view .LVU1521
	ldr	r3, [sp, #8]
	.loc 1 3336 10 view .LVU1522
	ldr	r6, [r3, #44]
.LVL548:
	.loc 1 3337 7 is_stmt 1 view .LVU1523
	.loc 1 3337 13 is_stmt 0 view .LVU1524
	movs	r2, #0
	mov	r1, r9
	add	r0, sp, #12
	bl	remove_chain
.LVL549:
	.loc 1 3338 7 is_stmt 1 view .LVU1525
	.loc 1 3338 10 is_stmt 0 view .LVU1526
	mov	r4, r0
	cbnz	r0, .L337
	.loc 1 3339 8 is_stmt 1 view .LVU1527
	.loc 1 3339 14 is_stmt 0 view .LVU1528
	mov	r1, r6
	ldr	r0, [sp, #8]
.LVL550:
	.loc 1 3339 14 view .LVU1529
	bl	move_window
.LVL551:
	mov	r4, r0
.LVL552:
	.loc 1 3340 8 is_stmt 1 view .LVU1530
	.loc 1 3340 27 is_stmt 0 view .LVU1531
	add	r3, r9, #-1
	.loc 1 3340 22 view .LVU1532
	ldr	r2, [sp, #8]
	str	r3, [r2, #12]
	b	.L337
.LVL553:
.L358:
	.loc 1 3273 9 view .LVU1533
	movs	r4, #6
	b	.L332
.LVL554:
.L359:
	.loc 1 3288 6 is_stmt 1 view .LVU1534
	.loc 1 3288 12 is_stmt 0 view .LVU1535
	add	r0, sp, #12
	bl	dir_register
.LVL555:
	mov	r4, r0
.LVL556:
	.loc 1 3288 12 view .LVU1536
	b	.L335
.L334:
	.loc 1 3293 5 is_stmt 1 view .LVU1537
	.loc 1 3293 15 is_stmt 0 view .LVU1538
	ldrb	r3, [sp, #18]	@ zero_extendqisi2
	.loc 1 3293 8 view .LVU1539
	tst	r3, #17
	bne	.L348
	.loc 1 3296 6 is_stmt 1 view .LVU1540
	.loc 1 3296 9 is_stmt 0 view .LVU1541
	tst	r6, #4
	beq	.L336
	.loc 1 3296 36 view .LVU1542
	movs	r4, #8
.LVL557:
	.loc 1 3296 36 view .LVU1543
	b	.L337
.LVL558:
.L333:
	.loc 1 3347 4 is_stmt 1 view .LVU1544
	.loc 1 3347 7 is_stmt 0 view .LVU1545
	cbnz	r4, .L337
	.loc 1 3348 5 is_stmt 1 view .LVU1546
	.loc 1 3348 15 is_stmt 0 view .LVU1547
	ldrb	r3, [sp, #18]	@ zero_extendqisi2
	.loc 1 3348 8 view .LVU1548
	tst	r3, #16
	bne	.L350
	.loc 1 3351 6 is_stmt 1 view .LVU1549
	.loc 1 3351 9 is_stmt 0 view .LVU1550
	tst	r6, #2
	beq	.L337
	.loc 1 3351 28 discriminator 1 view .LVU1551
	tst	r3, #1
	beq	.L337
	.loc 1 3352 11 view .LVU1552
	movs	r4, #7
.LVL559:
	.loc 1 3352 11 view .LVU1553
	b	.L338
.LVL560:
.L348:
	.loc 1 3294 10 view .LVU1554
	movs	r4, #7
.LVL561:
.L337:
	.loc 1 3357 3 is_stmt 1 view .LVU1555
	.loc 1 3357 6 is_stmt 0 view .LVU1556
	cbnz	r4, .L338
	.loc 1 3358 4 is_stmt 1 view .LVU1557
	.loc 1 3358 7 is_stmt 0 view .LVU1558
	tst	r7, #8
	beq	.L339
	.loc 1 3359 5 is_stmt 1 view .LVU1559
	.loc 1 3359 10 is_stmt 0 view .LVU1560
	orr	r7, r7, #64
.LVL562:
.L339:
	.loc 1 3360 4 is_stmt 1 view .LVU1561
	.loc 1 3360 21 is_stmt 0 view .LVU1562
	ldr	r3, [sp, #8]
	ldr	r3, [r3, #44]
	.loc 1 3360 17 view .LVU1563
	str	r3, [r5, #32]
	.loc 1 3361 4 is_stmt 1 view .LVU1564
	.loc 1 3361 20 is_stmt 0 view .LVU1565
	ldr	r3, [sp, #40]
	.loc 1 3361 16 view .LVU1566
	str	r3, [r5, #36]
.LVL563:
.L338:
	.loc 1 3379 3 is_stmt 1 view .LVU1567
	.loc 1 3379 6 is_stmt 0 view .LVU1568
	cmp	r4, #0
	bne	.L331
	.loc 1 3391 5 is_stmt 1 view .LVU1569
	.loc 1 3391 22 is_stmt 0 view .LVU1570
	ldr	r6, [sp, #8]
	.loc 1 3391 37 view .LVU1571
	ldr	r8, [sp, #40]
	.loc 1 3391 22 view .LVU1572
	mov	r1, r8
	mov	r0, r6
	bl	ld_clust
.LVL564:
	.loc 1 3391 20 view .LVU1573
	str	r0, [r5, #8]
	.loc 1 3392 5 is_stmt 1 view .LVU1574
	.loc 1 3392 23 is_stmt 0 view .LVU1575
	add	r0, r8, #28
	bl	ld_dword
.LVL565:
	.loc 1 3392 21 view .LVU1576
	str	r0, [r5, #12]
	.loc 1 3397 4 is_stmt 1 view .LVU1577
	.loc 1 3397 15 is_stmt 0 view .LVU1578
	str	r6, [r5]
	.loc 1 3398 4 is_stmt 1 view .LVU1579
	.loc 1 3398 19 is_stmt 0 view .LVU1580
	ldrh	r3, [r6, #6]
	.loc 1 3398 15 view .LVU1581
	strh	r3, [r5, #4]	@ movhi
	.loc 1 3399 4 is_stmt 1 view .LVU1582
	.loc 1 3399 13 is_stmt 0 view .LVU1583
	strb	r7, [r5, #16]
	.loc 1 3400 4 is_stmt 1 view .LVU1584
	.loc 1 3400 12 is_stmt 0 view .LVU1585
	movs	r1, #0
	strb	r1, [r5, #17]
	.loc 1 3401 4 is_stmt 1 view .LVU1586
	.loc 1 3401 13 is_stmt 0 view .LVU1587
	str	r1, [r5, #28]
	.loc 1 3402 4 is_stmt 1 view .LVU1588
	.loc 1 3402 13 is_stmt 0 view .LVU1589
	str	r1, [r5, #20]
	.loc 1 3405 4 is_stmt 1 view .LVU1590
	.loc 1 3405 14 is_stmt 0 view .LVU1591
	add	r8, r5, #40
	.loc 1 3405 4 view .LVU1592
	mov	r2, #512
	mov	r0, r8
	bl	mem_set
.LVL566:
	.loc 1 3407 4 is_stmt 1 view .LVU1593
	.loc 1 3407 7 is_stmt 0 view .LVU1594
	tst	r7, #32
	beq	.L331
	.loc 1 3407 38 discriminator 1 view .LVU1595
	ldr	r6, [r5, #12]
	.loc 1 3407 28 discriminator 1 view .LVU1596
	cmp	r6, #0
	beq	.L331
	.loc 1 3408 5 is_stmt 1 view .LVU1597
	.loc 1 3408 14 is_stmt 0 view .LVU1598
	str	r6, [r5, #20]
	.loc 1 3409 5 is_stmt 1 view .LVU1599
	.loc 1 3409 20 is_stmt 0 view .LVU1600
	ldr	r3, [sp, #8]
	ldrh	r7, [r3, #10]
.LVL567:
	.loc 1 3409 9 view .LVU1601
	lsls	r7, r7, #9
.LVL568:
	.loc 1 3410 5 is_stmt 1 view .LVU1602
	.loc 1 3410 10 is_stmt 0 view .LVU1603
	ldr	r1, [r5, #8]
.LVL569:
	.loc 1 3411 5 is_stmt 1 view .LVU1604
	.loc 1 3411 5 is_stmt 0 view .LVU1605
	b	.L340
.LVL570:
.L350:
	.loc 1 3349 10 view .LVU1606
	movs	r4, #4
.LVL571:
	.loc 1 3349 10 view .LVU1607
	b	.L338
.LVL572:
.L341:
	.loc 1 3414 6 is_stmt 1 view .LVU1608
	.loc 1 3414 9 is_stmt 0 view .LVU1609
	cmp	r1, #-1
	beq	.L360
.LVL573:
.L342:
	.loc 1 3411 64 discriminator 2 view .LVU1610
	subs	r6, r6, r7
.LVL574:
.L340:
	.loc 1 3411 5 discriminator 1 view .LVU1611
	cbnz	r4, .L343
	.loc 1 3411 46 discriminator 3 view .LVU1612
	cmp	r6, r7
	bls	.L343
	.loc 1 3412 6 is_stmt 1 view .LVU1613
	.loc 1 3412 13 is_stmt 0 view .LVU1614
	mov	r0, r5
	bl	get_fat
.LVL575:
	.loc 1 3412 13 view .LVU1615
	mov	r1, r0
.LVL576:
	.loc 1 3413 6 is_stmt 1 view .LVU1616
	.loc 1 3413 9 is_stmt 0 view .LVU1617
	cmp	r0, #1
	bhi	.L341
	.loc 1 3413 25 view .LVU1618
	movs	r4, #2
.LVL577:
	.loc 1 3413 25 view .LVU1619
	b	.L341
.LVL578:
.L360:
	.loc 1 3414 34 view .LVU1620
	movs	r4, #1
.LVL579:
	.loc 1 3414 34 view .LVU1621
	b	.L342
.LVL580:
.L343:
	.loc 1 3416 5 is_stmt 1 view .LVU1622
	.loc 1 3416 15 is_stmt 0 view .LVU1623
	str	r1, [r5, #24]
	.loc 1 3417 5 is_stmt 1 view .LVU1624
	.loc 1 3417 8 is_stmt 0 view .LVU1625
	cmp	r4, #0
	bne	.L331
	.loc 1 3417 29 discriminator 1 view .LVU1626
	ubfx	r3, r6, #0, #9
	.loc 1 3417 22 discriminator 1 view .LVU1627
	cmp	r3, #0
	beq	.L331
	.loc 1 3418 6 is_stmt 1 view .LVU1628
	.loc 1 3418 16 is_stmt 0 view .LVU1629
	ldr	r7, [sp, #8]
.LVL581:
	.loc 1 3418 16 view .LVU1630
	mov	r0, r7
	bl	clust2sect
.LVL582:
	.loc 1 3418 9 view .LVU1631
	cbnz	r0, .L361
	.loc 1 3419 11 view .LVU1632
	movs	r4, #2
.LVL583:
	.loc 1 3419 11 view .LVU1633
	b	.L345
.LVL584:
.L361:
	.loc 1 3421 7 is_stmt 1 view .LVU1634
	.loc 1 3421 21 is_stmt 0 view .LVU1635
	add	r2, r0, r6, lsr #9
	.loc 1 3421 16 view .LVU1636
	str	r2, [r5, #28]
	.loc 1 3423 7 is_stmt 1 view .LVU1637
	.loc 1 3423 11 is_stmt 0 view .LVU1638
	movs	r3, #1
	mov	r1, r8
	ldrb	r0, [r7, #1]	@ zero_extendqisi2
.LVL585:
	.loc 1 3423 11 view .LVU1639
	bl	disk_read
.LVL586:
	.loc 1 3423 10 view .LVU1640
	cmp	r0, #0
	beq	.L331
	.loc 1 3423 67 view .LVU1641
	movs	r4, #1
.LVL587:
	.loc 1 3423 67 view .LVU1642
	b	.L345
.LVL588:
.L346:
	.loc 1 3261 18 view .LVU1643
	movs	r4, #9
	b	.L330
.L363:
	.align	2
.L362:
	.word	1210122240
.LFE33:
	.size	f_open, .-f_open
	.section	.text.f_read,"ax",%progbits
	.align	1
	.global	f_read
	.syntax unified
	.thumb
	.thumb_func
	.fpu fpv4-sp-d16
	.type	f_read, %function
f_read:
.LVL589:
.LFB34:
	.loc 1 3452 1 is_stmt 1 view -0
	@ args = 0, pretend = 0, frame = 24
	@ frame_needed = 0, uses_anonymous_args = 0
	.loc 1 3452 1 is_stmt 0 view .LVU1645
	push	{r4, r5, r6, r7, r8, r9, r10, fp, lr}
.LCFI42:
	sub	sp, sp, #28
.LCFI43:
	mov	r4, r0
	mov	r8, r1
	mov	r5, r2
	mov	r9, r3
	.loc 1 3453 2 is_stmt 1 view .LVU1646
	.loc 1 3454 2 view .LVU1647
	.loc 1 3455 2 view .LVU1648
	.loc 1 3456 2 view .LVU1649
	.loc 1 3457 2 view .LVU1650
	.loc 1 3458 2 view .LVU1651
.LVL590:
	.loc 1 3461 2 view .LVU1652
	.loc 1 3461 6 is_stmt 0 view .LVU1653
	movs	r3, #0
.LVL591:
	.loc 1 3461 6 view .LVU1654
	str	r3, [r9]
	.loc 1 3462 2 is_stmt 1 view .LVU1655
	.loc 1 3462 8 is_stmt 0 view .LVU1656
	str	r0, [sp, #8]
	add	r1, sp, #20
.LVL592:
	.loc 1 3462 8 view .LVU1657
	bl	validate
.LVL593:
	.loc 1 3463 2 is_stmt 1 view .LVU1658
	.loc 1 3463 5 is_stmt 0 view .LVU1659
	str	r0, [sp, #4]
	cmp	r0, #0
	bne	.L367
	.loc 1 3463 27 discriminator 2 view .LVU1660
	ldrb	r3, [r4, #17]	@ zero_extendqisi2
	str	r3, [sp, #4]
.LVL594:
	.loc 1 3463 19 discriminator 2 view .LVU1661
	cmp	r3, #0
	bne	.L367
	.loc 1 3464 2 is_stmt 1 view .LVU1662
	.loc 1 3464 10 is_stmt 0 view .LVU1663
	ldrb	r3, [r4, #16]	@ zero_extendqisi2
.LVL595:
	.loc 1 3464 5 view .LVU1664
	ands	r3, r3, #1
	str	r3, [sp, #12]
	beq	.L388
	.loc 1 3465 2 is_stmt 1 view .LVU1665
	.loc 1 3465 18 is_stmt 0 view .LVU1666
	ldr	r6, [r4, #12]
	.loc 1 3465 31 view .LVU1667
	ldr	r3, [r4, #20]
	.loc 1 3465 9 view .LVU1668
	subs	r6, r6, r3
.LVL596:
	.loc 1 3466 2 is_stmt 1 view .LVU1669
	.loc 1 3466 5 is_stmt 0 view .LVU1670
	cmp	r6, r5
	bcc	.L386
	mov	r6, r5
.LVL597:
	.loc 1 3466 5 view .LVU1671
	b	.L386
.LVL598:
.L372:
	.loc 1 3482 7 is_stmt 1 view .LVU1672
	.loc 1 3482 14 is_stmt 0 view .LVU1673
	ldr	r1, [r4, #24]
	ldr	r0, [sp, #8]
	bl	get_fat
.LVL599:
	.loc 1 3482 14 view .LVU1674
	b	.L373
.L396:
	.loc 1 3485 19 is_stmt 1 discriminator 1 view .LVU1675
	movs	r3, #2
	strb	r3, [r4, #17]
	.loc 1 3485 19 discriminator 1 view .LVU1676
	str	r3, [sp, #4]
.LVL600:
	.loc 1 3485 19 is_stmt 0 discriminator 1 view .LVU1677
	b	.L367
.LVL601:
.L397:
	.loc 1 3486 29 is_stmt 1 discriminator 1 view .LVU1678
	movs	r3, #1
	strb	r3, [r4, #17]
	.loc 1 3486 29 discriminator 1 view .LVU1679
	ldr	r3, [sp, #12]
	str	r3, [sp, #4]
.LVL602:
	.loc 1 3486 29 is_stmt 0 discriminator 1 view .LVU1680
	b	.L367
.LVL603:
.L398:
	.loc 1 3490 15 is_stmt 1 discriminator 1 view .LVU1681
	movs	r3, #2
	strb	r3, [r4, #17]
	.loc 1 3490 15 discriminator 1 view .LVU1682
	str	r3, [sp, #4]
.LVL604:
	.loc 1 3490 15 is_stmt 0 discriminator 1 view .LVU1683
	b	.L367
.LVL605:
.L379:
	.loc 1 3497 78 is_stmt 1 discriminator 2 view .LVU1684
	.loc 1 3504 5 discriminator 2 view .LVU1685
	.loc 1 3504 9 is_stmt 0 discriminator 2 view .LVU1686
	ldrsb	r3, [r4, #16]
	.loc 1 3504 8 discriminator 2 view .LVU1687
	cmp	r3, #0
	blt	.L393
.L380:
	.loc 1 3509 5 is_stmt 1 view .LVU1688
	.loc 1 3509 10 is_stmt 0 view .LVU1689
	lsl	fp, fp, #9
.LVL606:
	.loc 1 3510 5 is_stmt 1 view .LVU1690
	b	.L381
.LVL607:
.L393:
	.loc 1 3504 36 is_stmt 0 discriminator 1 view .LVU1691
	ldr	r0, [r4, #28]
	.loc 1 3504 43 discriminator 1 view .LVU1692
	subs	r0, r0, r5
	.loc 1 3504 31 discriminator 1 view .LVU1693
	cmp	r0, fp
	bcs	.L380
	.loc 1 3505 6 is_stmt 1 view .LVU1694
	mov	r2, #512
	add	r1, r4, #40
	add	r0, r8, r0, lsl #9
	bl	mem_cpy
.LVL608:
	b	.L380
.L377:
	.loc 1 3513 4 view .LVU1695
	.loc 1 3513 10 is_stmt 0 view .LVU1696
	ldr	r2, [r4, #28]
	.loc 1 3513 7 view .LVU1697
	cmp	r2, r5
	beq	.L382
	.loc 1 3515 5 is_stmt 1 view .LVU1698
	.loc 1 3515 9 is_stmt 0 view .LVU1699
	ldrsb	r3, [r4, #16]
	.loc 1 3515 8 view .LVU1700
	cmp	r3, #0
	blt	.L394
.L383:
	.loc 1 3520 5 is_stmt 1 view .LVU1701
	.loc 1 3520 9 is_stmt 0 view .LVU1702
	movs	r3, #1
	mov	r2, r5
	add	r1, r4, #40
	ldr	r0, [sp, #20]
	ldrb	r0, [r0, #1]	@ zero_extendqisi2
	bl	disk_read
.LVL609:
	.loc 1 3520 8 view .LVU1703
	cmp	r0, #0
	bne	.L395
.L382:
	.loc 1 3520 79 is_stmt 1 discriminator 2 view .LVU1704
	.loc 1 3523 4 discriminator 2 view .LVU1705
	.loc 1 3523 13 is_stmt 0 discriminator 2 view .LVU1706
	str	r5, [r4, #28]
.LVL610:
.L370:
	.loc 1 3525 3 is_stmt 1 view .LVU1707
	.loc 1 3525 27 is_stmt 0 view .LVU1708
	ldr	r3, [r4, #20]
	.loc 1 3525 34 view .LVU1709
	ubfx	r3, r3, #0, #9
	.loc 1 3525 8 view .LVU1710
	rsb	fp, r3, #512
.LVL611:
	.loc 1 3526 3 is_stmt 1 view .LVU1711
	.loc 1 3526 6 is_stmt 0 view .LVU1712
	cmp	r6, fp
	bcs	.L385
	.loc 1 3526 24 view .LVU1713
	mov	fp, r6
.LVL612:
.L385:
	.loc 1 3531 3 is_stmt 1 view .LVU1714
	.loc 1 3531 18 is_stmt 0 view .LVU1715
	add	r1, r4, #40
	.loc 1 3531 3 view .LVU1716
	mov	r2, fp
	add	r1, r1, r3
	mov	r0, r8
	bl	mem_cpy
.LVL613:
.L381:
	.loc 1 3469 9 view .LVU1717
	add	r8, r8, fp
.LVL614:
	.loc 1 3469 27 view .LVU1718
	ldr	r3, [r4, #20]
	add	r3, r3, fp
	str	r3, [r4, #20]
	.loc 1 3469 40 view .LVU1719
	ldr	r3, [r9]
	add	r3, r3, fp
	str	r3, [r9]
	.loc 1 3469 53 view .LVU1720
	sub	r6, r6, fp
.LVL615:
.L386:
	.loc 1 3468 2 view .LVU1721
	cmp	r6, #0
	beq	.L367
	.loc 1 3470 3 is_stmt 1 view .LVU1722
	.loc 1 3470 9 is_stmt 0 view .LVU1723
	ldr	r3, [r4, #20]
	.loc 1 3470 16 view .LVU1724
	ubfx	r2, r3, #0, #9
	.loc 1 3470 6 view .LVU1725
	cmp	r2, #0
	bne	.L370
	.loc 1 3471 4 is_stmt 1 view .LVU1726
	.loc 1 3471 42 is_stmt 0 view .LVU1727
	ldr	r2, [sp, #20]
	ldrh	r2, [r2, #10]
	.loc 1 3471 50 view .LVU1728
	subs	r2, r2, #1
.LVL616:
	.loc 1 3472 4 is_stmt 1 view .LVU1729
	.loc 1 3472 7 is_stmt 0 view .LVU1730
	ands	r7, r2, r3, lsr #9
.LVL617:
	.loc 1 3472 7 view .LVU1731
	bne	.L371
	.loc 1 3473 5 is_stmt 1 view .LVU1732
	.loc 1 3473 8 is_stmt 0 view .LVU1733
	cmp	r3, #0
	bne	.L372
	.loc 1 3474 6 is_stmt 1 view .LVU1734
	.loc 1 3474 11 is_stmt 0 view .LVU1735
	ldr	r0, [r4, #8]
.LVL618:
.L373:
	.loc 1 3485 5 is_stmt 1 view .LVU1736
	.loc 1 3485 8 is_stmt 0 view .LVU1737
	cmp	r0, #1
	bls	.L396
	.loc 1 3485 40 is_stmt 1 discriminator 2 view .LVU1738
	.loc 1 3486 5 discriminator 2 view .LVU1739
	.loc 1 3486 8 is_stmt 0 discriminator 2 view .LVU1740
	cmp	r0, #-1
	beq	.L397
	.loc 1 3486 51 is_stmt 1 discriminator 2 view .LVU1741
	.loc 1 3487 5 discriminator 2 view .LVU1742
	.loc 1 3487 15 is_stmt 0 discriminator 2 view .LVU1743
	str	r0, [r4, #24]
.LVL619:
.L371:
	.loc 1 3489 4 is_stmt 1 view .LVU1744
	.loc 1 3489 11 is_stmt 0 view .LVU1745
	ldr	r10, [sp, #20]
	ldr	r1, [r4, #24]
	mov	r0, r10
	bl	clust2sect
.LVL620:
	.loc 1 3490 4 is_stmt 1 view .LVU1746
	.loc 1 3490 7 is_stmt 0 view .LVU1747
	mov	r5, r0
	cmp	r0, #0
	beq	.L398
	.loc 1 3490 36 is_stmt 1 discriminator 2 view .LVU1748
	.loc 1 3491 4 discriminator 2 view .LVU1749
	.loc 1 3491 9 is_stmt 0 discriminator 2 view .LVU1750
	add	r5, r5, r7
.LVL621:
	.loc 1 3492 4 is_stmt 1 discriminator 2 view .LVU1751
	.loc 1 3492 7 is_stmt 0 discriminator 2 view .LVU1752
	lsr	fp, r6, #9
.LVL622:
	.loc 1 3493 4 is_stmt 1 discriminator 2 view .LVU1753
	.loc 1 3493 7 is_stmt 0 discriminator 2 view .LVU1754
	cmp	r6, #512
	bcc	.L377
	.loc 1 3494 5 is_stmt 1 view .LVU1755
	.loc 1 3494 15 is_stmt 0 view .LVU1756
	add	r3, r7, fp
	.loc 1 3494 24 view .LVU1757
	ldrh	r2, [r10, #10]
	.loc 1 3494 8 view .LVU1758
	cmp	r3, r2
	bls	.L378
	.loc 1 3495 6 is_stmt 1 view .LVU1759
	.loc 1 3495 9 is_stmt 0 view .LVU1760
	sub	fp, r2, r7
.LVL623:
.L378:
	.loc 1 3497 5 is_stmt 1 view .LVU1761
	.loc 1 3497 9 is_stmt 0 view .LVU1762
	mov	r3, fp
	mov	r2, r5
	mov	r1, r8
	ldrb	r0, [r10, #1]	@ zero_extendqisi2
	bl	disk_read
.LVL624:
	.loc 1 3497 8 view .LVU1763
	cmp	r0, #0
	beq	.L379
	.loc 1 3497 56 is_stmt 1 discriminator 1 view .LVU1764
	movs	r3, #1
	strb	r3, [r4, #17]
	.loc 1 3497 56 discriminator 1 view .LVU1765
	ldr	r3, [sp, #12]
	str	r3, [sp, #4]
.LVL625:
.L367:
	.loc 1 3536 1 is_stmt 0 view .LVU1766
	ldr	r0, [sp, #4]
	add	sp, sp, #28
.LCFI44:
	@ sp needed
	pop	{r4, r5, r6, r7, r8, r9, r10, fp, pc}
.LVL626:
.L394:
.LCFI45:
	.loc 1 3516 6 is_stmt 1 view .LVU1767
	.loc 1 3516 10 is_stmt 0 view .LVU1768
	movs	r3, #1
	add	r1, r4, #40
	ldrb	r0, [r10, #1]	@ zero_extendqisi2
	bl	disk_write
.LVL627:
	.loc 1 3516 9 view .LVU1769
	cbnz	r0, .L399
	.loc 1 3516 85 is_stmt 1 discriminator 2 view .LVU1770
	.loc 1 3517 6 discriminator 2 view .LVU1771
	.loc 1 3517 15 is_stmt 0 discriminator 2 view .LVU1772
	ldrb	r3, [r4, #16]	@ zero_extendqisi2
	and	r3, r3, #127
	strb	r3, [r4, #16]
	b	.L383
.L399:
	.loc 1 3516 63 is_stmt 1 discriminator 1 view .LVU1773
	movs	r3, #1
	strb	r3, [r4, #17]
	.loc 1 3516 63 discriminator 1 view .LVU1774
	ldr	r3, [sp, #12]
	str	r3, [sp, #4]
.LVL628:
	.loc 1 3516 63 is_stmt 0 discriminator 1 view .LVU1775
	b	.L367
.LVL629:
.L395:
	.loc 1 3520 57 is_stmt 1 discriminator 1 view .LVU1776
	movs	r3, #1
	strb	r3, [r4, #17]
	.loc 1 3520 57 discriminator 1 view .LVU1777
	ldr	r3, [sp, #12]
	str	r3, [sp, #4]
.LVL630:
	.loc 1 3520 57 is_stmt 0 discriminator 1 view .LVU1778
	b	.L367
.LVL631:
.L388:
	.loc 1 3464 29 view .LVU1779
	movs	r3, #7
	str	r3, [sp, #4]
.LVL632:
	.loc 1 3464 29 view .LVU1780
	b	.L367
.LFE34:
	.size	f_read, .-f_read
	.section	.text.f_write,"ax",%progbits
	.align	1
	.global	f_write
	.syntax unified
	.thumb
	.thumb_func
	.fpu fpv4-sp-d16
	.type	f_write, %function
f_write:
.LVL633:
.LFB35:
	.loc 1 3552 1 is_stmt 1 view -0
	@ args = 0, pretend = 0, frame = 16
	@ frame_needed = 0, uses_anonymous_args = 0
	.loc 1 3552 1 is_stmt 0 view .LVU1782
	push	{r4, r5, r6, r7, r8, r9, r10, fp, lr}
.LCFI46:
	sub	sp, sp, #20
.LCFI47:
	mov	r4, r0
	mov	r8, r1
	mov	r6, r2
	mov	r9, r3
	.loc 1 3553 2 is_stmt 1 view .LVU1783
	.loc 1 3554 2 view .LVU1784
	.loc 1 3555 2 view .LVU1785
	.loc 1 3556 2 view .LVU1786
	.loc 1 3557 2 view .LVU1787
.LVL634:
	.loc 1 3560 2 view .LVU1788
	.loc 1 3560 6 is_stmt 0 view .LVU1789
	movs	r3, #0
.LVL635:
	.loc 1 3560 6 view .LVU1790
	str	r3, [r9]
	.loc 1 3561 2 is_stmt 1 view .LVU1791
	.loc 1 3561 8 is_stmt 0 view .LVU1792
	str	r0, [sp, #4]
	add	r1, sp, #12
.LVL636:
	.loc 1 3561 8 view .LVU1793
	bl	validate
.LVL637:
	.loc 1 3562 2 is_stmt 1 view .LVU1794
	.loc 1 3562 5 is_stmt 0 view .LVU1795
	str	r0, [sp]
	cmp	r0, #0
	bne	.L403
	.loc 1 3562 27 discriminator 2 view .LVU1796
	ldrb	r3, [r4, #17]	@ zero_extendqisi2
	str	r3, [sp]
.LVL638:
	.loc 1 3562 19 discriminator 2 view .LVU1797
	cmp	r3, #0
	bne	.L403
	.loc 1 3563 2 is_stmt 1 view .LVU1798
	.loc 1 3563 10 is_stmt 0 view .LVU1799
	ldrb	r3, [r4, #16]	@ zero_extendqisi2
.LVL639:
	.loc 1 3563 5 view .LVU1800
	tst	r3, #2
	beq	.L424
	.loc 1 3566 2 is_stmt 1 view .LVU1801
	.loc 1 3566 59 is_stmt 0 view .LVU1802
	ldr	r3, [r4, #20]
	.loc 1 3566 5 view .LVU1803
	cmn	r3, r6
	bcc	.L422
	.loc 1 3567 3 is_stmt 1 view .LVU1804
	.loc 1 3567 7 is_stmt 0 view .LVU1805
	mvns	r6, r3
.LVL640:
	.loc 1 3567 7 view .LVU1806
	b	.L422
.LVL641:
.L430:
	.loc 1 3578 7 is_stmt 1 view .LVU1807
	.loc 1 3578 14 is_stmt 0 view .LVU1808
	movs	r1, #0
	ldr	r0, [sp, #4]
.LVL642:
	.loc 1 3578 14 view .LVU1809
	bl	create_chain
.LVL643:
	.loc 1 3578 14 view .LVU1810
	b	.L408
.LVL644:
.L407:
	.loc 1 3587 7 is_stmt 1 view .LVU1811
	.loc 1 3587 14 is_stmt 0 view .LVU1812
	ldr	r1, [r4, #24]
	ldr	r0, [sp, #4]
	bl	create_chain
.LVL645:
	.loc 1 3587 14 view .LVU1813
	b	.L408
.L431:
	.loc 1 3591 20 is_stmt 1 discriminator 1 view .LVU1814
	mov	fp, #2
	strb	fp, [r4, #17]
	.loc 1 3591 20 discriminator 1 view .LVU1815
	str	fp, [sp]
.LVL646:
	.loc 1 3591 20 is_stmt 0 discriminator 1 view .LVU1816
	b	.L403
.LVL647:
.L432:
	.loc 1 3592 29 is_stmt 1 discriminator 1 view .LVU1817
	mov	fp, #1
	strb	fp, [r4, #17]
	.loc 1 3592 29 discriminator 1 view .LVU1818
	str	fp, [sp]
.LVL648:
	.loc 1 3592 29 is_stmt 0 discriminator 1 view .LVU1819
	b	.L403
.LVL649:
.L433:
	.loc 1 3600 5 is_stmt 1 view .LVU1820
	.loc 1 3600 9 is_stmt 0 view .LVU1821
	movs	r3, #1
	ldr	r2, [r4, #28]
	add	r1, r4, #40
	ldr	r0, [sp, #12]
	ldrb	r0, [r0, #1]	@ zero_extendqisi2
	bl	disk_write
.LVL650:
	.loc 1 3600 8 view .LVU1822
	cbnz	r0, .L427
	.loc 1 3600 84 is_stmt 1 discriminator 2 view .LVU1823
	.loc 1 3601 5 discriminator 2 view .LVU1824
	.loc 1 3601 14 is_stmt 0 discriminator 2 view .LVU1825
	ldrb	r3, [r4, #16]	@ zero_extendqisi2
	and	r3, r3, #127
	strb	r3, [r4, #16]
	b	.L412
.L427:
	.loc 1 3600 62 is_stmt 1 discriminator 1 view .LVU1826
	mov	fp, #1
	strb	fp, [r4, #17]
	.loc 1 3600 62 discriminator 1 view .LVU1827
	str	fp, [sp]
.LVL651:
	.loc 1 3600 62 is_stmt 0 discriminator 1 view .LVU1828
	b	.L403
.LVL652:
.L434:
	.loc 1 3605 15 is_stmt 1 discriminator 1 view .LVU1829
	mov	fp, #2
	strb	fp, [r4, #17]
	.loc 1 3605 15 discriminator 1 view .LVU1830
	str	fp, [sp]
.LVL653:
	.loc 1 3605 15 is_stmt 0 discriminator 1 view .LVU1831
	b	.L403
.LVL654:
.L417:
	.loc 1 3612 79 is_stmt 1 discriminator 2 view .LVU1832
	.loc 1 3620 5 discriminator 2 view .LVU1833
	.loc 1 3620 11 is_stmt 0 discriminator 2 view .LVU1834
	ldr	r1, [r4, #28]
	.loc 1 3620 18 discriminator 2 view .LVU1835
	sub	r1, r1, r10
	.loc 1 3620 8 discriminator 2 view .LVU1836
	cmp	r1, r5
	bcc	.L428
.L418:
	.loc 1 3626 5 is_stmt 1 view .LVU1837
	.loc 1 3626 10 is_stmt 0 view .LVU1838
	lsls	r5, r5, #9
.LVL655:
	.loc 1 3627 5 is_stmt 1 view .LVU1839
	b	.L419
.LVL656:
.L428:
	.loc 1 3621 6 view .LVU1840
	mov	r2, #512
	add	r1, r8, r1, lsl #9
	add	r0, r4, #40
	bl	mem_cpy
.LVL657:
	.loc 1 3622 6 view .LVU1841
	.loc 1 3622 15 is_stmt 0 view .LVU1842
	ldrb	r3, [r4, #16]	@ zero_extendqisi2
	and	r3, r3, #127
	strb	r3, [r4, #16]
	b	.L418
.L415:
	.loc 1 3635 4 is_stmt 1 view .LVU1843
	.loc 1 3635 10 is_stmt 0 view .LVU1844
	ldr	r3, [r4, #28]
	.loc 1 3635 7 view .LVU1845
	cmp	r3, r10
	beq	.L420
	.loc 1 3636 7 discriminator 1 view .LVU1846
	ldr	r2, [r4, #20]
	.loc 1 3636 23 discriminator 1 view .LVU1847
	ldr	r3, [r4, #12]
	.loc 1 3635 25 discriminator 1 view .LVU1848
	cmp	r2, r3
	bcc	.L429
.L420:
	.loc 1 3638 28 is_stmt 1 view .LVU1849
	.loc 1 3641 4 view .LVU1850
	.loc 1 3641 13 is_stmt 0 view .LVU1851
	str	r10, [r4, #28]
.LVL658:
.L405:
	.loc 1 3643 3 is_stmt 1 view .LVU1852
	.loc 1 3643 27 is_stmt 0 view .LVU1853
	ldr	r3, [r4, #20]
	.loc 1 3643 34 view .LVU1854
	ubfx	r3, r3, #0, #9
	.loc 1 3643 8 view .LVU1855
	rsb	r5, r3, #512
.LVL659:
	.loc 1 3644 3 is_stmt 1 view .LVU1856
	.loc 1 3644 6 is_stmt 0 view .LVU1857
	cmp	r6, r5
	bcs	.L421
	.loc 1 3644 24 view .LVU1858
	mov	r5, r6
.LVL660:
.L421:
	.loc 1 3650 3 is_stmt 1 view .LVU1859
	.loc 1 3650 11 is_stmt 0 view .LVU1860
	add	r0, r4, #40
	.loc 1 3650 3 view .LVU1861
	mov	r2, r5
	mov	r1, r8
	add	r0, r0, r3
	bl	mem_cpy
.LVL661:
	.loc 1 3651 3 is_stmt 1 view .LVU1862
	.loc 1 3651 12 is_stmt 0 view .LVU1863
	ldrb	r3, [r4, #16]	@ zero_extendqisi2
	orn	r3, r3, #127
	strb	r3, [r4, #16]
.L419:
	.loc 1 3571 9 view .LVU1864
	add	r8, r8, r5
.LVL662:
	.loc 1 3571 27 view .LVU1865
	ldr	r3, [r4, #20]
	add	r3, r3, r5
	str	r3, [r4, #20]
	.loc 1 3571 73 view .LVU1866
	ldr	r2, [r4, #12]
	.loc 1 3571 94 view .LVU1867
	cmp	r3, r2
	it	cc
	movcc	r3, r2
	.loc 1 3571 52 view .LVU1868
	str	r3, [r4, #12]
	.loc 1 3571 117 view .LVU1869
	ldr	r3, [r9]
	add	r3, r3, r5
	str	r3, [r9]
	.loc 1 3571 130 view .LVU1870
	subs	r6, r6, r5
.LVL663:
.L422:
	.loc 1 3570 2 view .LVU1871
	cmp	r6, #0
	beq	.L409
	.loc 1 3572 3 is_stmt 1 view .LVU1872
	.loc 1 3572 9 is_stmt 0 view .LVU1873
	ldr	r3, [r4, #20]
	.loc 1 3572 16 view .LVU1874
	ubfx	r2, r3, #0, #9
	.loc 1 3572 6 view .LVU1875
	cmp	r2, #0
	bne	.L405
	.loc 1 3573 4 is_stmt 1 view .LVU1876
	.loc 1 3573 43 is_stmt 0 view .LVU1877
	ldr	r2, [sp, #12]
	ldrh	r7, [r2, #10]
	.loc 1 3573 51 view .LVU1878
	subs	r7, r7, #1
.LVL664:
	.loc 1 3574 4 is_stmt 1 view .LVU1879
	.loc 1 3574 7 is_stmt 0 view .LVU1880
	ands	r7, r7, r3, lsr #9
.LVL665:
	.loc 1 3574 7 view .LVU1881
	bne	.L406
	.loc 1 3575 5 is_stmt 1 view .LVU1882
	.loc 1 3575 8 is_stmt 0 view .LVU1883
	cmp	r3, #0
	bne	.L407
	.loc 1 3576 6 is_stmt 1 view .LVU1884
	.loc 1 3576 11 is_stmt 0 view .LVU1885
	ldr	r0, [r4, #8]
.LVL666:
	.loc 1 3577 6 is_stmt 1 view .LVU1886
	.loc 1 3577 9 is_stmt 0 view .LVU1887
	cmp	r0, #0
	beq	.L430
.L408:
	.loc 1 3590 5 is_stmt 1 view .LVU1888
	.loc 1 3590 8 is_stmt 0 view .LVU1889
	cmp	r0, #0
	beq	.L409
	.loc 1 3591 5 is_stmt 1 view .LVU1890
	.loc 1 3591 8 is_stmt 0 view .LVU1891
	cmp	r0, #1
	beq	.L431
	.loc 1 3591 41 is_stmt 1 discriminator 2 view .LVU1892
	.loc 1 3592 5 discriminator 2 view .LVU1893
	.loc 1 3592 8 is_stmt 0 discriminator 2 view .LVU1894
	cmp	r0, #-1
	beq	.L432
	.loc 1 3592 51 is_stmt 1 discriminator 2 view .LVU1895
	.loc 1 3593 5 discriminator 2 view .LVU1896
	.loc 1 3593 15 is_stmt 0 discriminator 2 view .LVU1897
	str	r0, [r4, #24]
	.loc 1 3594 5 is_stmt 1 discriminator 2 view .LVU1898
	.loc 1 3594 16 is_stmt 0 discriminator 2 view .LVU1899
	ldr	r3, [r4, #8]
	.loc 1 3594 8 discriminator 2 view .LVU1900
	cbnz	r3, .L406
	.loc 1 3594 30 is_stmt 1 discriminator 1 view .LVU1901
	.loc 1 3594 45 is_stmt 0 discriminator 1 view .LVU1902
	str	r0, [r4, #8]
.LVL667:
.L406:
	.loc 1 3599 4 is_stmt 1 view .LVU1903
	.loc 1 3599 8 is_stmt 0 view .LVU1904
	ldrsb	r3, [r4, #16]
	.loc 1 3599 7 view .LVU1905
	cmp	r3, #0
	blt	.L433
.L412:
	.loc 1 3604 4 is_stmt 1 view .LVU1906
	.loc 1 3604 11 is_stmt 0 view .LVU1907
	ldr	fp, [sp, #12]
	ldr	r1, [r4, #24]
	mov	r0, fp
	bl	clust2sect
.LVL668:
	.loc 1 3605 4 is_stmt 1 view .LVU1908
	.loc 1 3605 7 is_stmt 0 view .LVU1909
	mov	r10, r0
	cmp	r0, #0
	beq	.L434
	.loc 1 3605 36 is_stmt 1 discriminator 2 view .LVU1910
	.loc 1 3606 4 discriminator 2 view .LVU1911
	.loc 1 3606 9 is_stmt 0 discriminator 2 view .LVU1912
	add	r10, r10, r7
.LVL669:
	.loc 1 3607 4 is_stmt 1 discriminator 2 view .LVU1913
	.loc 1 3607 7 is_stmt 0 discriminator 2 view .LVU1914
	lsrs	r5, r6, #9
.LVL670:
	.loc 1 3608 4 is_stmt 1 discriminator 2 view .LVU1915
	.loc 1 3608 7 is_stmt 0 discriminator 2 view .LVU1916
	cmp	r6, #512
	bcc	.L415
	.loc 1 3609 5 is_stmt 1 view .LVU1917
	.loc 1 3609 15 is_stmt 0 view .LVU1918
	adds	r3, r7, r5
	.loc 1 3609 24 view .LVU1919
	ldrh	r2, [fp, #10]
	.loc 1 3609 8 view .LVU1920
	cmp	r3, r2
	bls	.L416
	.loc 1 3610 6 is_stmt 1 view .LVU1921
	.loc 1 3610 9 is_stmt 0 view .LVU1922
	subs	r5, r2, r7
.LVL671:
.L416:
	.loc 1 3612 5 is_stmt 1 view .LVU1923
	.loc 1 3612 9 is_stmt 0 view .LVU1924
	mov	r3, r5
	mov	r2, r10
	mov	r1, r8
	ldrb	r0, [fp, #1]	@ zero_extendqisi2
	bl	disk_write
.LVL672:
	.loc 1 3612 8 view .LVU1925
	cmp	r0, #0
	beq	.L417
	.loc 1 3612 57 is_stmt 1 discriminator 1 view .LVU1926
	mov	fp, #1
	strb	fp, [r4, #17]
	.loc 1 3612 57 discriminator 1 view .LVU1927
	str	fp, [sp]
.LVL673:
.L403:
	.loc 1 3658 1 is_stmt 0 view .LVU1928
	ldr	r0, [sp]
	add	sp, sp, #20
.LCFI48:
	@ sp needed
	pop	{r4, r5, r6, r7, r8, r9, r10, fp, pc}
.LVL674:
.L429:
.LCFI49:
	.loc 1 3637 5 view .LVU1929
	movs	r3, #1
	mov	r2, r10
	add	r1, r4, #40
	ldrb	r0, [fp, #1]	@ zero_extendqisi2
	bl	disk_read
.LVL675:
	.loc 1 3636 32 view .LVU1930
	cmp	r0, #0
	beq	.L420
	.loc 1 3638 6 is_stmt 1 view .LVU1931
	mov	fp, #1
	strb	fp, [r4, #17]
	.loc 1 3638 6 view .LVU1932
	str	fp, [sp]
.LVL676:
	.loc 1 3638 6 is_stmt 0 view .LVU1933
	b	.L403
.LVL677:
.L409:
	.loc 1 3655 2 is_stmt 1 view .LVU1934
	.loc 1 3655 11 is_stmt 0 view .LVU1935
	ldrb	r3, [r4, #16]	@ zero_extendqisi2
	orr	r3, r3, #64
	strb	r3, [r4, #16]
	.loc 1 3657 2 is_stmt 1 view .LVU1936
	b	.L403
.LVL678:
.L424:
	.loc 1 3563 30 is_stmt 0 view .LVU1937
	movs	r3, #7
	str	r3, [sp]
.LVL679:
	.loc 1 3563 30 view .LVU1938
	b	.L403
.LFE35:
	.size	f_write, .-f_write
	.section	.text.f_sync,"ax",%progbits
	.align	1
	.global	f_sync
	.syntax unified
	.thumb
	.thumb_func
	.fpu fpv4-sp-d16
	.type	f_sync, %function
f_sync:
.LVL680:
.LFB36:
	.loc 1 3670 1 is_stmt 1 view -0
	@ args = 0, pretend = 0, frame = 8
	@ frame_needed = 0, uses_anonymous_args = 0
	.loc 1 3670 1 is_stmt 0 view .LVU1940
	push	{r4, r5, lr}
.LCFI50:
	sub	sp, sp, #12
.LCFI51:
	mov	r4, r0
	.loc 1 3671 2 is_stmt 1 view .LVU1941
	.loc 1 3672 2 view .LVU1942
	.loc 1 3673 2 view .LVU1943
	.loc 1 3674 2 view .LVU1944
	.loc 1 3678 2 view .LVU1945
	.loc 1 3678 8 is_stmt 0 view .LVU1946
	add	r1, sp, #4
	bl	validate
.LVL681:
	.loc 1 3679 2 is_stmt 1 view .LVU1947
	.loc 1 3679 5 is_stmt 0 view .LVU1948
	mov	r3, r0
	cbnz	r0, .L436
	.loc 1 3680 3 is_stmt 1 view .LVU1949
	.loc 1 3680 9 is_stmt 0 view .LVU1950
	ldrb	r2, [r4, #16]	@ zero_extendqisi2
	.loc 1 3680 6 view .LVU1951
	tst	r2, #64
	beq	.L436
	.loc 1 3682 4 is_stmt 1 view .LVU1952
	.loc 1 3682 7 is_stmt 0 view .LVU1953
	tst	r2, #128
	bne	.L440
.LVL682:
.L437:
	.loc 1 3688 4 is_stmt 1 view .LVU1954
	.loc 1 3717 5 view .LVU1955
	.loc 1 3717 11 is_stmt 0 view .LVU1956
	ldr	r1, [r4, #32]
	ldr	r0, [sp, #4]
	bl	move_window
.LVL683:
	.loc 1 3718 5 is_stmt 1 view .LVU1957
	.loc 1 3718 8 is_stmt 0 view .LVU1958
	mov	r3, r0
	cbz	r0, .L441
.LVL684:
.L436:
	.loc 1 3734 1 view .LVU1959
	mov	r0, r3
	add	sp, sp, #12
.LCFI52:
	@ sp needed
	pop	{r4, r5, pc}
.LVL685:
.L440:
.LCFI53:
	.loc 1 3683 5 is_stmt 1 view .LVU1960
	.loc 1 3683 9 is_stmt 0 view .LVU1961
	movs	r3, #1
	ldr	r2, [r4, #28]
	add	r1, r4, #40
	ldr	r0, [sp, #4]
.LVL686:
	.loc 1 3683 9 view .LVU1962
	ldrb	r0, [r0, #1]	@ zero_extendqisi2
	bl	disk_write
.LVL687:
	.loc 1 3683 8 view .LVU1963
	cbnz	r0, .L438
	.loc 1 3684 5 is_stmt 1 view .LVU1964
	.loc 1 3684 14 is_stmt 0 view .LVU1965
	ldrb	r3, [r4, #16]	@ zero_extendqisi2
	and	r3, r3, #127
	strb	r3, [r4, #16]
	b	.L437
.LVL688:
.L441:
	.loc 1 3719 6 is_stmt 1 view .LVU1966
	.loc 1 3719 10 is_stmt 0 view .LVU1967
	ldr	r5, [r4, #36]
.LVL689:
	.loc 1 3720 6 is_stmt 1 view .LVU1968
	.loc 1 3720 20 is_stmt 0 view .LVU1969
	ldrb	r3, [r5, #11]	@ zero_extendqisi2
	orr	r3, r3, #32
	strb	r3, [r5, #11]
	.loc 1 3721 6 is_stmt 1 view .LVU1970
	ldr	r2, [r4, #8]
	mov	r1, r5
	ldr	r0, [r4]
.LVL690:
	.loc 1 3721 6 is_stmt 0 view .LVU1971
	bl	st_clust
.LVL691:
	.loc 1 3722 6 is_stmt 1 view .LVU1972
	ldr	r1, [r4, #12]
	add	r0, r5, #28
	bl	st_dword
.LVL692:
	.loc 1 3723 6 view .LVU1973
	ldr	r1, .L442
	add	r0, r5, #22
	bl	st_dword
.LVL693:
	.loc 1 3724 6 view .LVU1974
	movs	r1, #0
	add	r0, r5, #18
	bl	st_word
.LVL694:
	.loc 1 3725 6 view .LVU1975
	.loc 1 3725 16 is_stmt 0 view .LVU1976
	ldr	r3, [sp, #4]
	movs	r2, #1
	strb	r2, [r3, #3]
	.loc 1 3726 6 is_stmt 1 view .LVU1977
	.loc 1 3726 12 is_stmt 0 view .LVU1978
	ldr	r0, [sp, #4]
	bl	sync_fs
.LVL695:
	mov	r3, r0
.LVL696:
	.loc 1 3727 6 is_stmt 1 view .LVU1979
	.loc 1 3727 15 is_stmt 0 view .LVU1980
	ldrb	r2, [r4, #16]	@ zero_extendqisi2
	bic	r2, r2, #64
	strb	r2, [r4, #16]
	b	.L436
.LVL697:
.L438:
	.loc 1 3683 62 view .LVU1981
	movs	r3, #1
	b	.L436
.L443:
	.align	2
.L442:
	.word	1210122240
.LFE36:
	.size	f_sync, .-f_sync
	.section	.text.f_close,"ax",%progbits
	.align	1
	.global	f_close
	.syntax unified
	.thumb
	.thumb_func
	.fpu fpv4-sp-d16
	.type	f_close, %function
f_close:
.LVL698:
.LFB37:
	.loc 1 3748 1 is_stmt 1 view -0
	@ args = 0, pretend = 0, frame = 8
	@ frame_needed = 0, uses_anonymous_args = 0
	.loc 1 3748 1 is_stmt 0 view .LVU1983
	push	{r4, lr}
.LCFI54:
	sub	sp, sp, #8
.LCFI55:
	mov	r4, r0
	.loc 1 3749 2 is_stmt 1 view .LVU1984
	.loc 1 3750 2 view .LVU1985
	.loc 1 3753 2 view .LVU1986
	.loc 1 3753 8 is_stmt 0 view .LVU1987
	bl	f_sync
.LVL699:
	.loc 1 3754 2 is_stmt 1 view .LVU1988
	.loc 1 3754 5 is_stmt 0 view .LVU1989
	mov	r3, r0
	cbz	r0, .L447
.L445:
.LVL700:
	.loc 1 3771 2 is_stmt 1 view .LVU1990
	.loc 1 3772 1 is_stmt 0 view .LVU1991
	mov	r0, r3
	add	sp, sp, #8
.LCFI56:
	@ sp needed
	pop	{r4, pc}
.LVL701:
.L447:
.LCFI57:
	.loc 1 3757 3 is_stmt 1 view .LVU1992
	.loc 1 3757 9 is_stmt 0 view .LVU1993
	add	r1, sp, #4
	mov	r0, r4
.LVL702:
	.loc 1 3757 9 view .LVU1994
	bl	validate
.LVL703:
	.loc 1 3758 3 is_stmt 1 view .LVU1995
	.loc 1 3758 6 is_stmt 0 view .LVU1996
	mov	r3, r0
	cmp	r0, #0
	bne	.L445
	.loc 1 3764 5 is_stmt 1 view .LVU1997
	.loc 1 3764 16 is_stmt 0 view .LVU1998
	movs	r2, #0
	str	r2, [r4]
	b	.L445
.LFE37:
	.size	f_close, .-f_close
	.section	.text.f_lseek,"ax",%progbits
	.align	1
	.global	f_lseek
	.syntax unified
	.thumb
	.thumb_func
	.fpu fpv4-sp-d16
	.type	f_lseek, %function
f_lseek:
.LVL704:
.LFB38:
	.loc 1 3937 1 is_stmt 1 view -0
	@ args = 0, pretend = 0, frame = 8
	@ frame_needed = 0, uses_anonymous_args = 0
	.loc 1 3937 1 is_stmt 0 view .LVU2000
	push	{r4, r5, r6, r7, r8, r9, lr}
.LCFI58:
	sub	sp, sp, #12
.LCFI59:
	mov	r4, r0
	mov	r5, r1
	.loc 1 3938 2 is_stmt 1 view .LVU2001
	.loc 1 3939 2 view .LVU2002
	.loc 1 3940 2 view .LVU2003
	.loc 1 3941 2 view .LVU2004
	.loc 1 3946 2 view .LVU2005
	.loc 1 3946 8 is_stmt 0 view .LVU2006
	mov	r9, r0
	add	r1, sp, #4
.LVL705:
	.loc 1 3946 8 view .LVU2007
	bl	validate
.LVL706:
	.loc 1 3947 2 is_stmt 1 view .LVU2008
	.loc 1 3947 5 is_stmt 0 view .LVU2009
	mov	r8, r0
	cmp	r0, #0
	bne	.L451
	.loc 1 3947 27 discriminator 2 view .LVU2010
	ldrb	r8, [r4, #17]	@ zero_extendqisi2
.LVL707:
	.loc 1 3947 19 discriminator 2 view .LVU2011
	cmp	r8, #0
	bne	.L451
	.loc 1 4005 3 is_stmt 1 view .LVU2012
	.loc 1 4005 20 is_stmt 0 view .LVU2013
	ldr	r3, [r4, #12]
	.loc 1 4005 6 view .LVU2014
	cmp	r3, r5
	bcs	.L452
	.loc 1 4005 53 discriminator 1 view .LVU2015
	ldrb	r2, [r4, #16]	@ zero_extendqisi2
	.loc 1 4005 29 discriminator 1 view .LVU2016
	tst	r2, #2
	bne	.L452
	.loc 1 4006 8 view .LVU2017
	mov	r5, r3
.LVL708:
.L452:
	.loc 1 4008 3 is_stmt 1 view .LVU2018
	.loc 1 4008 9 is_stmt 0 view .LVU2019
	ldr	r6, [r4, #20]
.LVL709:
	.loc 1 4009 3 is_stmt 1 view .LVU2020
	.loc 1 4009 12 is_stmt 0 view .LVU2021
	movs	r3, #0
	str	r3, [r4, #20]
	.loc 1 4010 3 is_stmt 1 view .LVU2022
	.loc 1 4010 6 is_stmt 0 view .LVU2023
	cbz	r5, .L453
	.loc 1 4011 4 is_stmt 1 view .LVU2024
	.loc 1 4011 19 is_stmt 0 view .LVU2025
	ldr	r3, [sp, #4]
	ldrh	r7, [r3, #10]
	.loc 1 4011 8 view .LVU2026
	lsls	r7, r7, #9
.LVL710:
	.loc 1 4012 4 is_stmt 1 view .LVU2027
	.loc 1 4012 7 is_stmt 0 view .LVU2028
	cbz	r6, .L454
	.loc 1 4013 10 discriminator 1 view .LVU2029
	subs	r3, r5, #1
	.loc 1 4013 15 discriminator 1 view .LVU2030
	udiv	r3, r3, r7
	.loc 1 4013 31 discriminator 1 view .LVU2031
	subs	r6, r6, #1
.LVL711:
	.loc 1 4013 36 discriminator 1 view .LVU2032
	udiv	r2, r6, r7
	.loc 1 4012 18 discriminator 1 view .LVU2033
	cmp	r3, r2
	bcc	.L454
	.loc 1 4014 5 is_stmt 1 view .LVU2034
	.loc 1 4014 30 is_stmt 0 view .LVU2035
	rsbs	r3, r7, #0
	.loc 1 4014 28 view .LVU2036
	ands	r6, r6, r3
.LVL712:
	.loc 1 4014 14 view .LVU2037
	str	r6, [r4, #20]
	.loc 1 4015 5 is_stmt 1 view .LVU2038
	.loc 1 4015 9 is_stmt 0 view .LVU2039
	subs	r6, r5, r6
.LVL713:
	.loc 1 4016 5 is_stmt 1 view .LVU2040
	.loc 1 4016 10 is_stmt 0 view .LVU2041
	ldr	r5, [r4, #24]
.LVL714:
	.loc 1 4016 10 view .LVU2042
	b	.L455
.LVL715:
.L454:
	.loc 1 4018 5 is_stmt 1 view .LVU2043
	.loc 1 4018 10 is_stmt 0 view .LVU2044
	ldr	r0, [r4, #8]
.LVL716:
	.loc 1 4020 5 is_stmt 1 view .LVU2045
	.loc 1 4020 8 is_stmt 0 view .LVU2046
	cbz	r0, .L476
.L456:
	.loc 1 4027 5 is_stmt 1 view .LVU2047
	.loc 1 4027 15 is_stmt 0 view .LVU2048
	str	r0, [r4, #24]
	mov	r6, r5
	mov	r5, r0
.LVL717:
.L455:
	.loc 1 4029 4 is_stmt 1 view .LVU2049
	.loc 1 4029 7 is_stmt 0 view .LVU2050
	cmp	r5, #0
	bne	.L459
.LVL718:
.L453:
	.loc 1 4059 3 is_stmt 1 view .LVU2051
	.loc 1 4059 26 is_stmt 0 view .LVU2052
	ldr	r3, [r4, #20]
	.loc 1 4059 42 view .LVU2053
	ldr	r2, [r4, #12]
	.loc 1 4059 6 view .LVU2054
	cmp	r3, r2
	bls	.L468
	.loc 1 4060 4 is_stmt 1 view .LVU2055
	.loc 1 4060 20 is_stmt 0 view .LVU2056
	str	r3, [r4, #12]
	.loc 1 4061 4 is_stmt 1 view .LVU2057
	.loc 1 4061 13 is_stmt 0 view .LVU2058
	ldrb	r2, [r4, #16]	@ zero_extendqisi2
	orr	r2, r2, #64
	strb	r2, [r4, #16]
.L468:
	.loc 1 4063 3 is_stmt 1 view .LVU2059
	.loc 1 4063 16 is_stmt 0 view .LVU2060
	ubfx	r3, r3, #0, #9
	.loc 1 4063 6 view .LVU2061
	cbz	r3, .L451
	.loc 1 4063 39 discriminator 1 view .LVU2062
	ldr	r2, [r4, #28]
	.loc 1 4063 25 discriminator 1 view .LVU2063
	cmp	r2, r5
	beq	.L451
	.loc 1 4066 4 is_stmt 1 view .LVU2064
	.loc 1 4066 8 is_stmt 0 view .LVU2065
	ldrsb	r3, [r4, #16]
	.loc 1 4066 7 view .LVU2066
	cmp	r3, #0
	blt	.L477
.L469:
	.loc 1 4071 4 is_stmt 1 view .LVU2067
	.loc 1 4071 8 is_stmt 0 view .LVU2068
	movs	r3, #1
	mov	r2, r5
	add	r1, r4, #40
	ldr	r0, [sp, #4]
	ldrb	r0, [r0, #1]	@ zero_extendqisi2
	bl	disk_read
.LVL719:
	.loc 1 4071 7 view .LVU2069
	cmp	r0, #0
	bne	.L478
	.loc 1 4071 79 is_stmt 1 discriminator 2 view .LVU2070
	.loc 1 4073 4 discriminator 2 view .LVU2071
	.loc 1 4073 13 is_stmt 0 discriminator 2 view .LVU2072
	str	r5, [r4, #28]
.LVL720:
.L451:
	.loc 1 4078 1 view .LVU2073
	mov	r0, r8
	add	sp, sp, #12
.LCFI60:
	@ sp needed
	pop	{r4, r5, r6, r7, r8, r9, pc}
.LVL721:
.L476:
.LCFI61:
	.loc 1 4021 6 is_stmt 1 view .LVU2074
	.loc 1 4021 13 is_stmt 0 view .LVU2075
	movs	r1, #0
	mov	r0, r4
.LVL722:
	.loc 1 4021 13 view .LVU2076
	bl	create_chain
.LVL723:
	.loc 1 4022 6 is_stmt 1 view .LVU2077
	.loc 1 4022 9 is_stmt 0 view .LVU2078
	cmp	r0, #1
	beq	.L479
	.loc 1 4022 42 is_stmt 1 discriminator 2 view .LVU2079
	.loc 1 4023 6 discriminator 2 view .LVU2080
	.loc 1 4023 9 is_stmt 0 discriminator 2 view .LVU2081
	cmp	r0, #-1
	beq	.L480
	.loc 1 4023 52 is_stmt 1 discriminator 2 view .LVU2082
	.loc 1 4024 6 discriminator 2 view .LVU2083
	.loc 1 4024 21 is_stmt 0 discriminator 2 view .LVU2084
	str	r0, [r4, #8]
	b	.L456
.L479:
	.loc 1 4022 21 is_stmt 1 discriminator 1 view .LVU2085
	mov	r8, #2
.LVL724:
	.loc 1 4022 21 is_stmt 0 discriminator 1 view .LVU2086
	strb	r8, [r4, #17]
	.loc 1 4022 21 is_stmt 1 discriminator 1 view .LVU2087
	b	.L451
.LVL725:
.L480:
	.loc 1 4023 30 discriminator 1 view .LVU2088
	mov	r8, #1
.LVL726:
	.loc 1 4023 30 is_stmt 0 discriminator 1 view .LVU2089
	strb	r8, [r4, #17]
	.loc 1 4023 30 is_stmt 1 discriminator 1 view .LVU2090
	b	.L451
.LVL727:
.L460:
	.loc 1 4045 7 view .LVU2091
	.loc 1 4045 14 is_stmt 0 view .LVU2092
	mov	r1, r5
	mov	r0, r9
	bl	get_fat
.LVL728:
	mov	r5, r0
.LVL729:
.L462:
	.loc 1 4047 6 is_stmt 1 view .LVU2093
	.loc 1 4047 9 is_stmt 0 view .LVU2094
	cmp	r5, #-1
	beq	.L481
	.loc 1 4047 52 is_stmt 1 discriminator 2 view .LVU2095
	.loc 1 4048 6 discriminator 2 view .LVU2096
	.loc 1 4048 9 is_stmt 0 discriminator 2 view .LVU2097
	cmp	r5, #1
	bls	.L464
	.loc 1 4048 33 discriminator 2 view .LVU2098
	ldr	r3, [sp, #4]
	ldr	r3, [r3, #20]
	.loc 1 4048 20 discriminator 2 view .LVU2099
	cmp	r3, r5
	bls	.L464
	.loc 1 4048 66 is_stmt 1 discriminator 4 view .LVU2100
	.loc 1 4049 6 discriminator 4 view .LVU2101
	.loc 1 4049 16 is_stmt 0 discriminator 4 view .LVU2102
	str	r5, [r4, #24]
.LVL730:
.L459:
	.loc 1 4030 11 view .LVU2103
	cmp	r6, r7
	bls	.L461
	.loc 1 4031 6 is_stmt 1 view .LVU2104
	.loc 1 4031 10 is_stmt 0 view .LVU2105
	subs	r6, r6, r7
.LVL731:
	.loc 1 4031 18 is_stmt 1 view .LVU2106
	.loc 1 4031 27 is_stmt 0 view .LVU2107
	ldr	r3, [r4, #20]
	add	r3, r3, r7
	str	r3, [r4, #20]
	.loc 1 4033 6 is_stmt 1 view .LVU2108
	.loc 1 4033 12 is_stmt 0 view .LVU2109
	ldrb	r3, [r4, #16]	@ zero_extendqisi2
	.loc 1 4033 9 view .LVU2110
	tst	r3, #2
	beq	.L460
	.loc 1 4034 7 is_stmt 1 view .LVU2111
	.loc 1 4038 7 view .LVU2112
	.loc 1 4038 14 is_stmt 0 view .LVU2113
	mov	r1, r5
	mov	r0, r9
	bl	create_chain
.LVL732:
	.loc 1 4039 7 is_stmt 1 view .LVU2114
	.loc 1 4039 10 is_stmt 0 view .LVU2115
	mov	r5, r0
	cmp	r0, #0
	bne	.L462
	.loc 1 4040 12 view .LVU2116
	mov	r6, r0
.LVL733:
.L461:
	.loc 1 4051 5 is_stmt 1 view .LVU2117
	.loc 1 4051 14 is_stmt 0 view .LVU2118
	ldr	r3, [r4, #20]
	add	r3, r3, r6
	str	r3, [r4, #20]
	.loc 1 4052 5 is_stmt 1 view .LVU2119
	.loc 1 4052 13 is_stmt 0 view .LVU2120
	ubfx	r3, r6, #0, #9
	.loc 1 4052 8 view .LVU2121
	cbz	r3, .L474
	.loc 1 4053 6 is_stmt 1 view .LVU2122
	.loc 1 4053 14 is_stmt 0 view .LVU2123
	mov	r1, r5
	ldr	r0, [sp, #4]
	bl	clust2sect
.LVL734:
	.loc 1 4054 6 is_stmt 1 view .LVU2124
	.loc 1 4054 9 is_stmt 0 view .LVU2125
	cbz	r0, .L482
	.loc 1 4054 39 is_stmt 1 discriminator 2 view .LVU2126
	.loc 1 4055 6 discriminator 2 view .LVU2127
	.loc 1 4055 12 is_stmt 0 discriminator 2 view .LVU2128
	add	r5, r0, r6, lsr #9
.LVL735:
	.loc 1 4055 12 discriminator 2 view .LVU2129
	b	.L453
.LVL736:
.L481:
	.loc 1 4047 30 is_stmt 1 discriminator 1 view .LVU2130
	mov	r8, #1
.LVL737:
	.loc 1 4047 30 is_stmt 0 discriminator 1 view .LVU2131
	strb	r8, [r4, #17]
	.loc 1 4047 30 is_stmt 1 discriminator 1 view .LVU2132
	b	.L451
.LVL738:
.L464:
	.loc 1 4048 45 discriminator 3 view .LVU2133
	mov	r8, #2
.LVL739:
	.loc 1 4048 45 is_stmt 0 discriminator 3 view .LVU2134
	strb	r8, [r4, #17]
	.loc 1 4048 45 is_stmt 1 discriminator 3 view .LVU2135
	b	.L451
.LVL740:
.L482:
	.loc 1 4054 18 discriminator 1 view .LVU2136
	mov	r8, #2
.LVL741:
	.loc 1 4054 18 is_stmt 0 discriminator 1 view .LVU2137
	strb	r8, [r4, #17]
	.loc 1 4054 18 is_stmt 1 discriminator 1 view .LVU2138
	b	.L451
.LVL742:
.L474:
	.loc 1 4009 20 is_stmt 0 view .LVU2139
	mov	r5, r3
.LVL743:
	.loc 1 4009 20 view .LVU2140
	b	.L453
.LVL744:
.L477:
	.loc 1 4067 5 is_stmt 1 view .LVU2141
	.loc 1 4067 9 is_stmt 0 view .LVU2142
	movs	r3, #1
	add	r1, r4, #40
	ldr	r0, [sp, #4]
	ldrb	r0, [r0, #1]	@ zero_extendqisi2
	bl	disk_write
.LVL745:
	.loc 1 4067 8 view .LVU2143
	cbnz	r0, .L483
	.loc 1 4067 84 is_stmt 1 discriminator 2 view .LVU2144
	.loc 1 4068 5 discriminator 2 view .LVU2145
	.loc 1 4068 14 is_stmt 0 discriminator 2 view .LVU2146
	ldrb	r3, [r4, #16]	@ zero_extendqisi2
	and	r3, r3, #127
	strb	r3, [r4, #16]
	b	.L469
.L483:
	.loc 1 4067 62 is_stmt 1 discriminator 1 view .LVU2147
	mov	r8, #1
.LVL746:
	.loc 1 4067 62 is_stmt 0 discriminator 1 view .LVU2148
	strb	r8, [r4, #17]
	.loc 1 4067 62 is_stmt 1 discriminator 1 view .LVU2149
	b	.L451
.LVL747:
.L478:
	.loc 1 4071 57 discriminator 1 view .LVU2150
	mov	r8, #1
.LVL748:
	.loc 1 4071 57 is_stmt 0 discriminator 1 view .LVU2151
	strb	r8, [r4, #17]
	.loc 1 4071 57 is_stmt 1 discriminator 1 view .LVU2152
	b	.L451
.LFE38:
	.size	f_lseek, .-f_lseek
	.section	.text.f_opendir,"ax",%progbits
	.align	1
	.global	f_opendir
	.syntax unified
	.thumb
	.thumb_func
	.fpu fpv4-sp-d16
	.type	f_opendir, %function
f_opendir:
.LVL749:
.LFB39:
	.loc 1 4091 1 view -0
	@ args = 0, pretend = 0, frame = 16
	@ frame_needed = 0, uses_anonymous_args = 0
	.loc 1 4091 1 is_stmt 0 view .LVU2154
	push	{r4, lr}
.LCFI62:
	sub	sp, sp, #16
.LCFI63:
	str	r1, [sp, #4]
	.loc 1 4092 2 is_stmt 1 view .LVU2155
	.loc 1 4093 2 view .LVU2156
	.loc 1 4094 2 view .LVU2157
	.loc 1 4098 2 view .LVU2158
	.loc 1 4098 5 is_stmt 0 view .LVU2159
	cbz	r0, .L490
	mov	r4, r0
	.loc 1 4101 2 is_stmt 1 view .LVU2160
.LVL750:
	.loc 1 4102 2 view .LVU2161
	.loc 1 4102 8 is_stmt 0 view .LVU2162
	movs	r2, #0
	add	r1, sp, #12
.LVL751:
	.loc 1 4102 8 view .LVU2163
	add	r0, sp, #4
.LVL752:
	.loc 1 4102 8 view .LVU2164
	bl	find_volume
.LVL753:
	.loc 1 4103 2 is_stmt 1 view .LVU2165
	.loc 1 4103 5 is_stmt 0 view .LVU2166
	mov	r3, r0
	cbz	r0, .L494
.L486:
	.loc 1 4145 2 is_stmt 1 view .LVU2167
	.loc 1 4145 5 is_stmt 0 view .LVU2168
	cbz	r3, .L485
.L489:
	.loc 1 4145 20 is_stmt 1 discriminator 1 view .LVU2169
	.loc 1 4145 28 is_stmt 0 discriminator 1 view .LVU2170
	movs	r2, #0
	str	r2, [r4]
.LVL754:
.L485:
	.loc 1 4148 1 view .LVU2171
	mov	r0, r3
	add	sp, sp, #16
.LCFI64:
	@ sp needed
	pop	{r4, pc}
.LVL755:
.L494:
.LCFI65:
	.loc 1 4104 3 is_stmt 1 view .LVU2172
	.loc 1 4104 11 is_stmt 0 view .LVU2173
	ldr	r3, [sp, #12]
	str	r3, [r4]
	.loc 1 4105 18 is_stmt 1 view .LVU2174
	.loc 1 4106 3 view .LVU2175
	.loc 1 4106 9 is_stmt 0 view .LVU2176
	ldr	r1, [sp, #4]
	mov	r0, r4
	bl	follow_path
.LVL756:
	.loc 1 4107 3 is_stmt 1 view .LVU2177
	.loc 1 4107 6 is_stmt 0 view .LVU2178
	mov	r3, r0
	cbnz	r0, .L487
	.loc 1 4108 4 is_stmt 1 view .LVU2179
	.loc 1 4108 8 is_stmt 0 view .LVU2180
	ldrsb	r3, [r4, #43]
	.loc 1 4108 7 view .LVU2181
	cmp	r3, #0
	blt	.L488
	.loc 1 4109 5 is_stmt 1 view .LVU2182
	.loc 1 4109 12 is_stmt 0 view .LVU2183
	ldrb	r3, [r4, #6]	@ zero_extendqisi2
	.loc 1 4109 8 view .LVU2184
	tst	r3, #16
	beq	.L491
	.loc 1 4121 7 is_stmt 1 view .LVU2185
	.loc 1 4121 21 is_stmt 0 view .LVU2186
	ldr	r1, [r4, #28]
	ldr	r0, [sp, #12]
	bl	ld_clust
.LVL757:
	.loc 1 4121 19 view .LVU2187
	str	r0, [r4, #8]
.L488:
	.loc 1 4127 4 is_stmt 1 view .LVU2188
	.loc 1 4128 5 view .LVU2189
	.loc 1 4128 17 is_stmt 0 view .LVU2190
	ldr	r3, [sp, #12]
	ldrh	r3, [r3, #6]
	.loc 1 4128 13 view .LVU2191
	strh	r3, [r4, #4]	@ movhi
	.loc 1 4129 5 is_stmt 1 view .LVU2192
	.loc 1 4129 11 is_stmt 0 view .LVU2193
	movs	r1, #0
	mov	r0, r4
	bl	dir_sdi
.LVL758:
	mov	r3, r0
.L487:
	.loc 1 4142 16 is_stmt 1 view .LVU2194
	.loc 1 4143 3 view .LVU2195
	.loc 1 4143 6 is_stmt 0 view .LVU2196
	cmp	r3, #4
	bne	.L486
.LVL759:
	.loc 1 4143 30 view .LVU2197
	movs	r3, #5
	b	.L489
.LVL760:
.L491:
	.loc 1 4124 10 view .LVU2198
	movs	r3, #5
	b	.L487
.LVL761:
.L490:
	.loc 1 4098 18 view .LVU2199
	movs	r3, #9
	b	.L485
.LFE39:
	.size	f_opendir, .-f_opendir
	.section	.text.f_closedir,"ax",%progbits
	.align	1
	.global	f_closedir
	.syntax unified
	.thumb
	.thumb_func
	.fpu fpv4-sp-d16
	.type	f_closedir, %function
f_closedir:
.LVL762:
.LFB40:
	.loc 1 4160 1 is_stmt 1 view -0
	@ args = 0, pretend = 0, frame = 8
	@ frame_needed = 0, uses_anonymous_args = 0
	.loc 1 4160 1 is_stmt 0 view .LVU2201
	push	{r4, lr}
.LCFI66:
	sub	sp, sp, #8
.LCFI67:
	mov	r4, r0
	.loc 1 4161 2 is_stmt 1 view .LVU2202
	.loc 1 4162 2 view .LVU2203
	.loc 1 4165 2 view .LVU2204
	.loc 1 4165 8 is_stmt 0 view .LVU2205
	add	r1, sp, #4
	bl	validate
.LVL763:
	.loc 1 4166 2 is_stmt 1 view .LVU2206
	.loc 1 4166 5 is_stmt 0 view .LVU2207
	mov	r3, r0
	cbnz	r0, .L496
	.loc 1 4174 4 is_stmt 1 view .LVU2208
	.loc 1 4174 15 is_stmt 0 view .LVU2209
	movs	r2, #0
	str	r2, [r4]
.L496:
	.loc 1 4180 2 is_stmt 1 view .LVU2210
	.loc 1 4181 1 is_stmt 0 view .LVU2211
	mov	r0, r3
.LVL764:
	.loc 1 4181 1 view .LVU2212
	add	sp, sp, #8
.LCFI68:
	@ sp needed
	pop	{r4, pc}
	.loc 1 4181 1 view .LVU2213
.LFE40:
	.size	f_closedir, .-f_closedir
	.section	.text.f_readdir,"ax",%progbits
	.align	1
	.global	f_readdir
	.syntax unified
	.thumb
	.thumb_func
	.fpu fpv4-sp-d16
	.type	f_readdir, %function
f_readdir:
.LVL765:
.LFB41:
	.loc 1 4194 1 is_stmt 1 view -0
	@ args = 0, pretend = 0, frame = 8
	@ frame_needed = 0, uses_anonymous_args = 0
	.loc 1 4194 1 is_stmt 0 view .LVU2215
	push	{r4, r5, r6, lr}
.LCFI69:
	sub	sp, sp, #8
.LCFI70:
	mov	r5, r0
	mov	r6, r1
	.loc 1 4195 2 is_stmt 1 view .LVU2216
	.loc 1 4196 2 view .LVU2217
	.loc 1 4200 2 view .LVU2218
	.loc 1 4200 8 is_stmt 0 view .LVU2219
	add	r1, sp, #4
.LVL766:
	.loc 1 4200 8 view .LVU2220
	bl	validate
.LVL767:
	.loc 1 4201 2 is_stmt 1 view .LVU2221
	.loc 1 4201 5 is_stmt 0 view .LVU2222
	mov	r4, r0
	cbnz	r0, .L499
	.loc 1 4202 3 is_stmt 1 view .LVU2223
	.loc 1 4202 6 is_stmt 0 view .LVU2224
	cbz	r6, .L504
	.loc 1 4205 19 is_stmt 1 view .LVU2225
	.loc 1 4206 4 view .LVU2226
	.loc 1 4206 10 is_stmt 0 view .LVU2227
	movs	r1, #0
	mov	r0, r5
.LVL768:
	.loc 1 4206 10 view .LVU2228
	bl	dir_read
.LVL769:
	.loc 1 4207 4 is_stmt 1 view .LVU2229
	.loc 1 4207 7 is_stmt 0 view .LVU2230
	cmp	r0, #4
	beq	.L501
	.loc 1 4208 4 is_stmt 1 view .LVU2231
	.loc 1 4208 7 is_stmt 0 view .LVU2232
	cbnz	r0, .L502
.L501:
	.loc 1 4209 5 is_stmt 1 view .LVU2233
	mov	r1, r6
	mov	r0, r5
.LVL770:
	.loc 1 4209 5 is_stmt 0 view .LVU2234
	bl	get_fileinfo
.LVL771:
	.loc 1 4210 5 is_stmt 1 view .LVU2235
	.loc 1 4210 11 is_stmt 0 view .LVU2236
	movs	r1, #0
	mov	r0, r5
	bl	dir_next
.LVL772:
	.loc 1 4211 5 is_stmt 1 view .LVU2237
	.loc 1 4211 8 is_stmt 0 view .LVU2238
	cmp	r0, #4
	beq	.L499
	.loc 1 4210 11 view .LVU2239
	mov	r4, r0
	b	.L499
.L504:
	.loc 1 4203 4 is_stmt 1 view .LVU2240
	.loc 1 4203 10 is_stmt 0 view .LVU2241
	movs	r1, #0
	mov	r0, r5
.LVL773:
	.loc 1 4203 10 view .LVU2242
	bl	dir_sdi
.LVL774:
	mov	r4, r0
.LVL775:
.L499:
	.loc 1 4213 17 is_stmt 1 view .LVU2243
	.loc 1 4216 2 view .LVU2244
	.loc 1 4217 1 is_stmt 0 view .LVU2245
	mov	r0, r4
	add	sp, sp, #8
.LCFI71:
	@ sp needed
	pop	{r4, r5, r6, pc}
.LVL776:
.L502:
.LCFI72:
	.loc 1 4206 10 view .LVU2246
	mov	r4, r0
	b	.L499
.LFE41:
	.size	f_readdir, .-f_readdir
	.section	.text.f_stat,"ax",%progbits
	.align	1
	.global	f_stat
	.syntax unified
	.thumb
	.thumb_func
	.fpu fpv4-sp-d16
	.type	f_stat, %function
f_stat:
.LVL777:
.LFB42:
	.loc 1 4282 1 is_stmt 1 view -0
	@ args = 0, pretend = 0, frame = 56
	@ frame_needed = 0, uses_anonymous_args = 0
	.loc 1 4282 1 is_stmt 0 view .LVU2248
	push	{r4, r5, lr}
.LCFI73:
	sub	sp, sp, #60
.LCFI74:
	str	r0, [sp, #4]
	mov	r5, r1
	.loc 1 4283 2 is_stmt 1 view .LVU2249
	.loc 1 4284 2 view .LVU2250
	.loc 1 4289 2 view .LVU2251
	.loc 1 4289 8 is_stmt 0 view .LVU2252
	movs	r2, #0
	add	r1, sp, #12
.LVL778:
	.loc 1 4289 8 view .LVU2253
	add	r0, sp, #4
.LVL779:
	.loc 1 4289 8 view .LVU2254
	bl	find_volume
.LVL780:
	.loc 1 4290 2 is_stmt 1 view .LVU2255
	.loc 1 4290 5 is_stmt 0 view .LVU2256
	mov	r4, r0
	cbz	r0, .L509
.LVL781:
.L506:
	.loc 1 4300 16 is_stmt 1 view .LVU2257
	.loc 1 4303 2 view .LVU2258
	.loc 1 4304 1 is_stmt 0 view .LVU2259
	mov	r0, r4
	add	sp, sp, #60
.LCFI75:
	@ sp needed
	pop	{r4, r5, pc}
.LVL782:
.L509:
.LCFI76:
	.loc 1 4291 25 is_stmt 1 view .LVU2260
	.loc 1 4292 3 view .LVU2261
	.loc 1 4292 9 is_stmt 0 view .LVU2262
	ldr	r1, [sp, #4]
	add	r0, sp, #12
.LVL783:
	.loc 1 4292 9 view .LVU2263
	bl	follow_path
.LVL784:
	.loc 1 4293 3 is_stmt 1 view .LVU2264
	.loc 1 4293 6 is_stmt 0 view .LVU2265
	mov	r4, r0
	cmp	r0, #0
	bne	.L506
	.loc 1 4294 4 is_stmt 1 view .LVU2266
	.loc 1 4294 8 is_stmt 0 view .LVU2267
	ldrsb	r3, [sp, #55]
	.loc 1 4294 7 view .LVU2268
	cmp	r3, #0
	blt	.L507
	.loc 1 4297 5 is_stmt 1 view .LVU2269
	.loc 1 4297 8 is_stmt 0 view .LVU2270
	cmp	r5, #0
	beq	.L506
	.loc 1 4297 14 is_stmt 1 discriminator 1 view .LVU2271
	mov	r1, r5
	add	r0, sp, #12
.LVL785:
	.loc 1 4297 14 is_stmt 0 discriminator 1 view .LVU2272
	bl	get_fileinfo
.LVL786:
	b	.L506
.LVL787:
.L507:
	.loc 1 4295 9 view .LVU2273
	movs	r4, #6
	b	.L506
.LFE42:
	.size	f_stat, .-f_stat
	.section	.text.f_getfree,"ax",%progbits
	.align	1
	.global	f_getfree
	.syntax unified
	.thumb
	.thumb_func
	.fpu fpv4-sp-d16
	.type	f_getfree, %function
f_getfree:
.LVL788:
.LFB43:
	.loc 1 4318 1 is_stmt 1 view -0
	@ args = 0, pretend = 0, frame = 32
	@ frame_needed = 0, uses_anonymous_args = 0
	.loc 1 4318 1 is_stmt 0 view .LVU2275
	push	{r4, r5, r6, r7, r8, r9, r10, lr}
.LCFI77:
	sub	sp, sp, #32
.LCFI78:
	str	r0, [sp, #4]
	mov	r10, r1
	mov	r4, r2
	.loc 1 4319 2 is_stmt 1 view .LVU2276
	.loc 1 4320 2 view .LVU2277
	.loc 1 4321 2 view .LVU2278
	.loc 1 4322 2 view .LVU2279
	.loc 1 4323 2 view .LVU2280
	.loc 1 4324 2 view .LVU2281
	.loc 1 4328 2 view .LVU2282
	.loc 1 4328 8 is_stmt 0 view .LVU2283
	movs	r2, #0
.LVL789:
	.loc 1 4328 8 view .LVU2284
	add	r1, sp, #28
.LVL790:
	.loc 1 4328 8 view .LVU2285
	add	r0, sp, #4
.LVL791:
	.loc 1 4328 8 view .LVU2286
	bl	find_volume
.LVL792:
	.loc 1 4329 2 is_stmt 1 view .LVU2287
	.loc 1 4329 5 is_stmt 0 view .LVU2288
	mov	r8, r0
	cbnz	r0, .L511
	.loc 1 4330 3 is_stmt 1 view .LVU2289
	.loc 1 4330 10 is_stmt 0 view .LVU2290
	ldr	r3, [sp, #28]
	str	r3, [r4]
	.loc 1 4332 3 is_stmt 1 view .LVU2291
	.loc 1 4332 9 is_stmt 0 view .LVU2292
	ldr	r2, [r3, #16]
	.loc 1 4332 26 view .LVU2293
	ldr	r5, [r3, #20]
	.loc 1 4332 37 view .LVU2294
	subs	r1, r5, #2
	.loc 1 4332 6 view .LVU2295
	cmp	r2, r1
	bhi	.L512
	.loc 1 4333 4 is_stmt 1 view .LVU2296
	.loc 1 4333 11 is_stmt 0 view .LVU2297
	str	r2, [r10]
.LVL793:
.L511:
	.loc 1 4390 2 is_stmt 1 view .LVU2298
	.loc 1 4391 1 is_stmt 0 view .LVU2299
	mov	r0, r8
	add	sp, sp, #32
.LCFI79:
	@ sp needed
	pop	{r4, r5, r6, r7, r8, r9, r10, pc}
.LVL794:
.L512:
.LCFI80:
	.loc 1 4336 4 is_stmt 1 view .LVU2300
	.loc 1 4337 4 view .LVU2301
	.loc 1 4337 10 is_stmt 0 view .LVU2302
	ldrb	r6, [r3]	@ zero_extendqisi2
	.loc 1 4337 7 view .LVU2303
	cmp	r6, #1
	beq	.L526
	.loc 1 4365 6 is_stmt 1 view .LVU2304
.LVL795:
	.loc 1 4365 27 view .LVU2305
	.loc 1 4365 32 is_stmt 0 view .LVU2306
	ldr	r9, [r3, #32]
.LVL796:
	.loc 1 4366 6 is_stmt 1 view .LVU2307
	.loc 1 4366 13 view .LVU2308
	.loc 1 4366 15 is_stmt 0 view .LVU2309
	movs	r4, #0
.LVL797:
	.loc 1 4366 8 view .LVU2310
	mov	r6, r4
	.loc 1 4336 10 view .LVU2311
	mov	r7, r4
	b	.L522
.LVL798:
.L526:
	.loc 1 4338 5 is_stmt 1 view .LVU2312
	.loc 1 4338 15 view .LVU2313
	.loc 1 4338 22 is_stmt 0 view .LVU2314
	str	r3, [sp, #12]
	.loc 1 4338 10 view .LVU2315
	movs	r4, #2
.LVL799:
	.loc 1 4336 10 view .LVU2316
	movs	r7, #0
	b	.L516
.LVL800:
.L515:
	.loc 1 4344 5 view .LVU2317
	adds	r4, r4, #1
.LVL801:
	.loc 1 4344 25 view .LVU2318
	ldr	r3, [sp, #28]
	ldr	r3, [r3, #20]
	.loc 1 4344 5 view .LVU2319
	cmp	r3, r4
	bls	.L514
.LVL802:
.L516:
	.loc 1 4339 5 is_stmt 1 view .LVU2320
	.loc 1 4340 6 view .LVU2321
	.loc 1 4340 13 is_stmt 0 view .LVU2322
	mov	r1, r4
	add	r0, sp, #12
	bl	get_fat
.LVL803:
	.loc 1 4341 6 is_stmt 1 view .LVU2323
	.loc 1 4341 9 is_stmt 0 view .LVU2324
	cmp	r0, #-1
	beq	.L523
	.loc 1 4342 6 is_stmt 1 view .LVU2325
	.loc 1 4342 9 is_stmt 0 view .LVU2326
	cmp	r0, #1
	beq	.L524
	.loc 1 4343 6 is_stmt 1 view .LVU2327
	.loc 1 4343 9 is_stmt 0 view .LVU2328
	cmp	r0, #0
	bne	.L515
	.loc 1 4343 21 is_stmt 1 discriminator 1 view .LVU2329
	.loc 1 4343 26 is_stmt 0 discriminator 1 view .LVU2330
	adds	r7, r7, #1
.LVL804:
	.loc 1 4343 26 discriminator 1 view .LVU2331
	b	.L515
.LVL805:
.L527:
	.loc 1 4369 8 is_stmt 1 view .LVU2332
	.loc 1 4369 14 is_stmt 0 view .LVU2333
	add	r6, r9, #1
.LVL806:
	.loc 1 4369 14 view .LVU2334
	mov	r1, r9
	ldr	r0, [sp, #28]
	bl	move_window
.LVL807:
	.loc 1 4370 8 is_stmt 1 view .LVU2335
	.loc 1 4370 11 is_stmt 0 view .LVU2336
	mov	r8, r0
	cbnz	r0, .L514
	.loc 1 4371 8 is_stmt 1 view .LVU2337
	.loc 1 4371 14 is_stmt 0 view .LVU2338
	ldr	r4, [sp, #28]
.LVL808:
	.loc 1 4371 10 view .LVU2339
	adds	r4, r4, #48
.LVL809:
	.loc 1 4372 8 is_stmt 1 view .LVU2340
	.loc 1 4369 14 is_stmt 0 view .LVU2341
	mov	r9, r6
	.loc 1 4372 10 view .LVU2342
	mov	r6, #512
.LVL810:
	.loc 1 4372 10 view .LVU2343
	b	.L517
.LVL811:
.L528:
	.loc 1 4375 8 is_stmt 1 view .LVU2344
	.loc 1 4375 12 is_stmt 0 view .LVU2345
	mov	r0, r4
	bl	ld_word
.LVL812:
	.loc 1 4375 11 view .LVU2346
	cbnz	r0, .L519
	.loc 1 4375 29 is_stmt 1 discriminator 1 view .LVU2347
	.loc 1 4375 34 is_stmt 0 discriminator 1 view .LVU2348
	adds	r7, r7, #1
.LVL813:
.L519:
	.loc 1 4376 8 is_stmt 1 view .LVU2349
	.loc 1 4376 10 is_stmt 0 view .LVU2350
	adds	r4, r4, #2
.LVL814:
	.loc 1 4376 16 is_stmt 1 view .LVU2351
	.loc 1 4376 18 is_stmt 0 view .LVU2352
	subs	r6, r6, #2
.LVL815:
	.loc 1 4376 18 view .LVU2353
	b	.L520
.L521:
	.loc 1 4379 8 is_stmt 1 view .LVU2354
	.loc 1 4379 10 is_stmt 0 view .LVU2355
	adds	r4, r4, #4
.LVL816:
	.loc 1 4379 16 is_stmt 1 view .LVU2356
	.loc 1 4379 18 is_stmt 0 view .LVU2357
	subs	r6, r6, #4
.LVL817:
.L520:
	.loc 1 4381 6 view .LVU2358
	subs	r5, r5, #1
.LVL818:
	.loc 1 4381 6 view .LVU2359
	beq	.L514
.LVL819:
.L522:
	.loc 1 4367 6 is_stmt 1 view .LVU2360
	.loc 1 4368 7 view .LVU2361
	.loc 1 4368 10 is_stmt 0 view .LVU2362
	cmp	r6, #0
	beq	.L527
.LVL820:
.L517:
	.loc 1 4374 7 is_stmt 1 view .LVU2363
	.loc 1 4374 13 is_stmt 0 view .LVU2364
	ldr	r3, [sp, #28]
	ldrb	r3, [r3]	@ zero_extendqisi2
	.loc 1 4374 10 view .LVU2365
	cmp	r3, #2
	beq	.L528
	.loc 1 4378 8 is_stmt 1 view .LVU2366
	.loc 1 4378 13 is_stmt 0 view .LVU2367
	mov	r0, r4
	bl	ld_dword
.LVL821:
	.loc 1 4378 11 view .LVU2368
	bics	r3, r0, #-268435456
	bne	.L521
	.loc 1 4378 45 is_stmt 1 discriminator 1 view .LVU2369
	.loc 1 4378 50 is_stmt 0 discriminator 1 view .LVU2370
	adds	r7, r7, #1
.LVL822:
	.loc 1 4378 50 discriminator 1 view .LVU2371
	b	.L521
.LVL823:
.L523:
	.loc 1 4341 36 view .LVU2372
	mov	r8, r6
.LVL824:
.L514:
	.loc 1 4384 4 is_stmt 1 view .LVU2373
	.loc 1 4384 11 is_stmt 0 view .LVU2374
	str	r7, [r10]
	.loc 1 4385 4 is_stmt 1 view .LVU2375
	.loc 1 4385 6 is_stmt 0 view .LVU2376
	ldr	r3, [sp, #28]
	.loc 1 4385 18 view .LVU2377
	str	r7, [r3, #16]
	.loc 1 4386 4 is_stmt 1 view .LVU2378
	.loc 1 4386 17 is_stmt 0 view .LVU2379
	ldrb	r2, [r3, #4]	@ zero_extendqisi2
	orr	r2, r2, #1
	strb	r2, [r3, #4]
	b	.L511
.LVL825:
.L524:
	.loc 1 4342 27 view .LVU2380
	mov	r8, #2
	b	.L514
.LFE43:
	.size	f_getfree, .-f_getfree
	.section	.text.f_truncate,"ax",%progbits
	.align	1
	.global	f_truncate
	.syntax unified
	.thumb
	.thumb_func
	.fpu fpv4-sp-d16
	.type	f_truncate, %function
f_truncate:
.LVL826:
.LFB44:
	.loc 1 4403 1 is_stmt 1 view -0
	@ args = 0, pretend = 0, frame = 8
	@ frame_needed = 0, uses_anonymous_args = 0
	.loc 1 4403 1 is_stmt 0 view .LVU2382
	push	{r4, r5, lr}
.LCFI81:
	sub	sp, sp, #12
.LCFI82:
	mov	r4, r0
	.loc 1 4404 2 is_stmt 1 view .LVU2383
	.loc 1 4405 2 view .LVU2384
	.loc 1 4406 2 view .LVU2385
	.loc 1 4409 2 view .LVU2386
	.loc 1 4409 8 is_stmt 0 view .LVU2387
	add	r1, sp, #4
	bl	validate
.LVL827:
	.loc 1 4410 2 is_stmt 1 view .LVU2388
	.loc 1 4410 5 is_stmt 0 view .LVU2389
	mov	r5, r0
	cbnz	r0, .L532
	.loc 1 4410 27 discriminator 2 view .LVU2390
	ldrb	r5, [r4, #17]	@ zero_extendqisi2
.LVL828:
	.loc 1 4410 19 discriminator 2 view .LVU2391
	cbnz	r5, .L532
	.loc 1 4411 2 is_stmt 1 view .LVU2392
	.loc 1 4411 10 is_stmt 0 view .LVU2393
	ldrb	r3, [r4, #16]	@ zero_extendqisi2
	.loc 1 4411 5 view .LVU2394
	tst	r3, #2
	beq	.L538
	.loc 1 4413 2 is_stmt 1 view .LVU2395
	.loc 1 4413 13 is_stmt 0 view .LVU2396
	ldr	r2, [r4, #12]
	.loc 1 4413 26 view .LVU2397
	ldr	r3, [r4, #20]
	.loc 1 4413 5 view .LVU2398
	cmp	r2, r3
	bls	.L532
	.loc 1 4414 3 is_stmt 1 view .LVU2399
	.loc 1 4414 6 is_stmt 0 view .LVU2400
	cbnz	r3, .L533
	.loc 1 4415 4 is_stmt 1 view .LVU2401
	.loc 1 4415 10 is_stmt 0 view .LVU2402
	movs	r2, #0
	ldr	r1, [r4, #8]
	mov	r0, r4
	bl	remove_chain
.LVL829:
	mov	r5, r0
.LVL830:
	.loc 1 4416 4 is_stmt 1 view .LVU2403
	.loc 1 4416 19 is_stmt 0 view .LVU2404
	movs	r3, #0
	str	r3, [r4, #8]
.LVL831:
.L534:
	.loc 1 4426 3 is_stmt 1 view .LVU2405
	.loc 1 4426 23 is_stmt 0 view .LVU2406
	ldr	r3, [r4, #20]
	.loc 1 4426 19 view .LVU2407
	str	r3, [r4, #12]
	.loc 1 4427 3 is_stmt 1 view .LVU2408
	.loc 1 4427 12 is_stmt 0 view .LVU2409
	ldrb	r3, [r4, #16]	@ zero_extendqisi2
	orr	r3, r3, #64
	strb	r3, [r4, #16]
	.loc 1 4429 3 is_stmt 1 view .LVU2410
	.loc 1 4429 6 is_stmt 0 view .LVU2411
	cbnz	r5, .L536
	.loc 1 4429 20 discriminator 1 view .LVU2412
	tst	r3, #128
	bne	.L543
.L536:
	.loc 1 4437 3 is_stmt 1 view .LVU2413
	.loc 1 4437 6 is_stmt 0 view .LVU2414
	cbnz	r5, .L537
.LVL832:
.L532:
	.loc 1 4441 1 view .LVU2415
	mov	r0, r5
	add	sp, sp, #12
.LCFI83:
	@ sp needed
	pop	{r4, r5, pc}
.LVL833:
.L533:
.LCFI84:
	.loc 1 4418 4 is_stmt 1 view .LVU2416
	.loc 1 4418 10 is_stmt 0 view .LVU2417
	ldr	r1, [r4, #24]
	mov	r0, r4
	bl	get_fat
.LVL834:
	.loc 1 4419 4 is_stmt 1 view .LVU2418
	.loc 1 4420 4 view .LVU2419
	.loc 1 4420 7 is_stmt 0 view .LVU2420
	cmp	r0, #-1
	beq	.L544
.L535:
.LVL835:
	.loc 1 4421 4 is_stmt 1 view .LVU2421
	.loc 1 4421 7 is_stmt 0 view .LVU2422
	cmp	r0, #1
	beq	.L540
	.loc 1 4422 4 is_stmt 1 view .LVU2423
	.loc 1 4422 7 is_stmt 0 view .LVU2424
	cmp	r5, #0
	bne	.L534
	.loc 1 4422 32 discriminator 1 view .LVU2425
	ldr	r3, [sp, #4]
	ldr	r3, [r3, #20]
	.loc 1 4422 21 discriminator 1 view .LVU2426
	cmp	r3, r0
	bls	.L534
	.loc 1 4423 5 is_stmt 1 view .LVU2427
	.loc 1 4423 11 is_stmt 0 view .LVU2428
	ldr	r2, [r4, #24]
	mov	r1, r0
	mov	r0, r4
.LVL836:
	.loc 1 4423 11 view .LVU2429
	bl	remove_chain
.LVL837:
	.loc 1 4423 11 view .LVU2430
	mov	r5, r0
.LVL838:
	.loc 1 4423 11 view .LVU2431
	b	.L534
.LVL839:
.L544:
	.loc 1 4420 31 view .LVU2432
	movs	r5, #1
	b	.L535
.LVL840:
.L540:
	.loc 1 4421 22 view .LVU2433
	movs	r5, #2
.LVL841:
	.loc 1 4421 22 view .LVU2434
	b	.L534
.LVL842:
.L543:
	.loc 1 4430 4 is_stmt 1 view .LVU2435
	.loc 1 4430 8 is_stmt 0 view .LVU2436
	movs	r3, #1
	ldr	r2, [r4, #28]
	add	r1, r4, #40
	ldr	r0, [sp, #4]
	ldrb	r0, [r0, #1]	@ zero_extendqisi2
	bl	disk_write
.LVL843:
	.loc 1 4430 7 view .LVU2437
	cbnz	r0, .L541
	.loc 1 4433 5 is_stmt 1 view .LVU2438
	.loc 1 4433 14 is_stmt 0 view .LVU2439
	ldrb	r3, [r4, #16]	@ zero_extendqisi2
	and	r3, r3, #127
	strb	r3, [r4, #16]
	b	.L536
.L541:
	.loc 1 4431 9 view .LVU2440
	movs	r5, #1
.LVL844:
.L537:
	.loc 1 4437 21 is_stmt 1 discriminator 1 view .LVU2441
	strb	r5, [r4, #17]
	.loc 1 4437 21 discriminator 1 view .LVU2442
	b	.L532
.LVL845:
.L538:
	.loc 1 4411 30 is_stmt 0 view .LVU2443
	movs	r5, #7
.LVL846:
	.loc 1 4411 30 view .LVU2444
	b	.L532
.LFE44:
	.size	f_truncate, .-f_truncate
	.section	.text.f_unlink,"ax",%progbits
	.align	1
	.global	f_unlink
	.syntax unified
	.thumb
	.thumb_func
	.fpu fpv4-sp-d16
	.type	f_unlink, %function
f_unlink:
.LVL847:
.LFB45:
	.loc 1 4453 1 is_stmt 1 view -0
	@ args = 0, pretend = 0, frame = 104
	@ frame_needed = 0, uses_anonymous_args = 0
	.loc 1 4453 1 is_stmt 0 view .LVU2446
	push	{r4, r5, r6, r7, lr}
.LCFI85:
	sub	sp, sp, #108
.LCFI86:
	str	r0, [sp, #4]
	.loc 1 4454 2 is_stmt 1 view .LVU2447
	.loc 1 4455 2 view .LVU2448
	.loc 1 4456 2 view .LVU2449
.LVL848:
	.loc 1 4457 2 view .LVU2450
	.loc 1 4465 2 view .LVU2451
	.loc 1 4465 8 is_stmt 0 view .LVU2452
	movs	r2, #2
	add	r1, sp, #12
	add	r0, sp, #4
.LVL849:
	.loc 1 4465 8 view .LVU2453
	bl	find_volume
.LVL850:
	.loc 1 4466 2 is_stmt 1 view .LVU2454
	.loc 1 4466 12 is_stmt 0 view .LVU2455
	ldr	r3, [sp, #12]
	str	r3, [sp, #60]
	.loc 1 4467 2 is_stmt 1 view .LVU2456
	.loc 1 4467 5 is_stmt 0 view .LVU2457
	mov	r4, r0
	cbz	r0, .L554
.LVL851:
.L546:
	.loc 1 4532 16 is_stmt 1 view .LVU2458
	.loc 1 4535 2 view .LVU2459
	.loc 1 4536 1 is_stmt 0 view .LVU2460
	mov	r0, r4
	add	sp, sp, #108
.LCFI87:
	@ sp needed
	pop	{r4, r5, r6, r7, pc}
.LVL852:
.L554:
.LCFI88:
	.loc 1 4468 18 is_stmt 1 view .LVU2461
	.loc 1 4469 3 view .LVU2462
	.loc 1 4469 9 is_stmt 0 view .LVU2463
	ldr	r1, [sp, #4]
	add	r0, sp, #60
.LVL853:
	.loc 1 4469 9 view .LVU2464
	bl	follow_path
.LVL854:
	.loc 1 4470 3 is_stmt 1 view .LVU2465
	.loc 1 4476 3 view .LVU2466
	.loc 1 4476 6 is_stmt 0 view .LVU2467
	mov	r4, r0
	cmp	r0, #0
	bne	.L546
	.loc 1 4477 4 is_stmt 1 view .LVU2468
	.loc 1 4477 8 is_stmt 0 view .LVU2469
	ldrsb	r3, [sp, #103]
	.loc 1 4477 7 view .LVU2470
	cmp	r3, #0
	blt	.L550
	.loc 1 4480 5 is_stmt 1 view .LVU2471
	.loc 1 4480 15 is_stmt 0 view .LVU2472
	ldrb	r5, [sp, #66]	@ zero_extendqisi2
	.loc 1 4480 8 view .LVU2473
	tst	r5, #1
	bne	.L551
.LVL855:
	.loc 1 4484 4 is_stmt 1 view .LVU2474
	.loc 1 4494 6 view .LVU2475
	.loc 1 4494 14 is_stmt 0 view .LVU2476
	ldr	r7, [sp, #12]
	ldr	r1, [sp, #88]
	mov	r0, r7
	bl	ld_clust
.LVL856:
	mov	r6, r0
.LVL857:
	.loc 1 4496 5 is_stmt 1 view .LVU2477
	.loc 1 4496 8 is_stmt 0 view .LVU2478
	tst	r5, #16
	beq	.L547
	.loc 1 4503 7 is_stmt 1 view .LVU2479
	.loc 1 4503 18 is_stmt 0 view .LVU2480
	str	r7, [sp, #16]
	.loc 1 4504 7 is_stmt 1 view .LVU2481
	.loc 1 4504 22 is_stmt 0 view .LVU2482
	str	r0, [sp, #24]
	.loc 1 4511 7 is_stmt 1 view .LVU2483
	.loc 1 4511 13 is_stmt 0 view .LVU2484
	movs	r1, #0
	add	r0, sp, #16
.LVL858:
	.loc 1 4511 13 view .LVU2485
	bl	dir_sdi
.LVL859:
	.loc 1 4512 7 is_stmt 1 view .LVU2486
	.loc 1 4512 10 is_stmt 0 view .LVU2487
	mov	r4, r0
	cbnz	r0, .L547
	.loc 1 4513 8 is_stmt 1 view .LVU2488
	.loc 1 4513 14 is_stmt 0 view .LVU2489
	movs	r1, #0
	add	r0, sp, #16
.LVL860:
	.loc 1 4513 14 view .LVU2490
	bl	dir_read
.LVL861:
	.loc 1 4514 8 is_stmt 1 view .LVU2491
	.loc 1 4514 11 is_stmt 0 view .LVU2492
	mov	r4, r0
	cbz	r0, .L552
	.loc 1 4515 8 is_stmt 1 view .LVU2493
	.loc 1 4515 11 is_stmt 0 view .LVU2494
	cmp	r0, #4
	bne	.L547
	b	.L548
.LVL862:
.L550:
	.loc 1 4456 8 view .LVU2495
	movs	r6, #0
	.loc 1 4478 9 view .LVU2496
	movs	r4, #6
.LVL863:
.L547:
	.loc 1 4520 4 is_stmt 1 view .LVU2497
	.loc 1 4520 7 is_stmt 0 view .LVU2498
	cmp	r4, #0
	bne	.L546
.LVL864:
.L548:
	.loc 1 4521 5 is_stmt 1 view .LVU2499
	.loc 1 4521 11 is_stmt 0 view .LVU2500
	add	r0, sp, #60
	bl	dir_remove
.LVL865:
	.loc 1 4522 5 is_stmt 1 view .LVU2501
	.loc 1 4522 8 is_stmt 0 view .LVU2502
	mov	r4, r0
	cbnz	r0, .L549
	.loc 1 4522 22 discriminator 1 view .LVU2503
	cbnz	r6, .L555
.LVL866:
.L549:
	.loc 1 4529 5 is_stmt 1 view .LVU2504
	.loc 1 4529 8 is_stmt 0 view .LVU2505
	cmp	r4, #0
	bne	.L546
	.loc 1 4529 23 is_stmt 1 discriminator 1 view .LVU2506
	.loc 1 4529 29 is_stmt 0 discriminator 1 view .LVU2507
	ldr	r0, [sp, #12]
	bl	sync_fs
.LVL867:
	mov	r4, r0
.LVL868:
	.loc 1 4529 29 discriminator 1 view .LVU2508
	b	.L546
.LVL869:
.L551:
	.loc 1 4456 8 view .LVU2509
	movs	r6, #0
	.loc 1 4481 10 view .LVU2510
	movs	r4, #7
	b	.L547
.LVL870:
.L552:
	.loc 1 4514 30 view .LVU2511
	movs	r4, #7
	b	.L547
.L555:
	.loc 1 4526 6 is_stmt 1 view .LVU2512
	.loc 1 4526 12 is_stmt 0 view .LVU2513
	movs	r2, #0
	mov	r1, r6
	add	r0, sp, #60
.LVL871:
	.loc 1 4526 12 view .LVU2514
	bl	remove_chain
.LVL872:
	mov	r4, r0
.LVL873:
	.loc 1 4526 12 view .LVU2515
	b	.L549
.LFE45:
	.size	f_unlink, .-f_unlink
	.section	.text.f_mkdir,"ax",%progbits
	.align	1
	.global	f_mkdir
	.syntax unified
	.thumb
	.thumb_func
	.fpu fpv4-sp-d16
	.type	f_mkdir, %function
f_mkdir:
.LVL874:
.LFB46:
	.loc 1 4548 1 is_stmt 1 view -0
	@ args = 0, pretend = 0, frame = 56
	@ frame_needed = 0, uses_anonymous_args = 0
	.loc 1 4548 1 is_stmt 0 view .LVU2517
	push	{r4, r5, r6, r7, r8, r9, r10, lr}
.LCFI89:
	sub	sp, sp, #56
.LCFI90:
	str	r0, [sp, #4]
	.loc 1 4549 2 is_stmt 1 view .LVU2518
	.loc 1 4550 2 view .LVU2519
	.loc 1 4551 2 view .LVU2520
	.loc 1 4552 2 view .LVU2521
	.loc 1 4553 2 view .LVU2522
	.loc 1 4554 2 view .LVU2523
	.loc 1 4559 2 view .LVU2524
	.loc 1 4559 8 is_stmt 0 view .LVU2525
	movs	r2, #2
	add	r1, sp, #8
	add	r0, sp, #4
.LVL875:
	.loc 1 4559 8 view .LVU2526
	bl	find_volume
.LVL876:
	.loc 1 4560 2 is_stmt 1 view .LVU2527
	.loc 1 4560 12 is_stmt 0 view .LVU2528
	ldr	r3, [sp, #8]
	str	r3, [sp, #12]
	.loc 1 4561 2 is_stmt 1 view .LVU2529
	.loc 1 4561 5 is_stmt 0 view .LVU2530
	mov	r4, r0
	cbz	r0, .L574
.LVL877:
.L557:
	.loc 1 4625 16 is_stmt 1 view .LVU2531
	.loc 1 4628 2 view .LVU2532
	.loc 1 4629 1 is_stmt 0 view .LVU2533
	mov	r0, r4
	add	sp, sp, #56
.LCFI91:
	@ sp needed
	pop	{r4, r5, r6, r7, r8, r9, r10, pc}
.LVL878:
.L574:
.LCFI92:
	.loc 1 4562 18 is_stmt 1 view .LVU2534
	.loc 1 4563 3 view .LVU2535
	.loc 1 4563 9 is_stmt 0 view .LVU2536
	ldr	r1, [sp, #4]
	add	r0, sp, #12
.LVL879:
	.loc 1 4563 9 view .LVU2537
	bl	follow_path
.LVL880:
	.loc 1 4564 3 is_stmt 1 view .LVU2538
	.loc 1 4564 6 is_stmt 0 view .LVU2539
	cmp	r0, #0
	beq	.L567
	.loc 1 4565 3 is_stmt 1 view .LVU2540
	.loc 1 4568 3 view .LVU2541
	.loc 1 4568 6 is_stmt 0 view .LVU2542
	cmp	r0, #4
	beq	.L575
	.loc 1 4563 9 view .LVU2543
	mov	r4, r0
	b	.L557
.L575:
	.loc 1 4569 4 is_stmt 1 view .LVU2544
	.loc 1 4569 10 is_stmt 0 view .LVU2545
	movs	r1, #0
	add	r0, sp, #12
.LVL881:
	.loc 1 4569 10 view .LVU2546
	bl	create_chain
.LVL882:
	.loc 1 4570 4 is_stmt 1 view .LVU2547
	.loc 1 4570 30 is_stmt 0 view .LVU2548
	ldr	r2, [sp, #8]
	ldrh	r3, [r2, #10]
	.loc 1 4570 38 view .LVU2549
	lsls	r3, r3, #9
	.loc 1 4570 19 view .LVU2550
	str	r3, [sp, #24]
	.loc 1 4571 4 is_stmt 1 view .LVU2551
.LVL883:
	.loc 1 4572 4 view .LVU2552
	.loc 1 4572 7 is_stmt 0 view .LVU2553
	mov	r8, r0
	cbnz	r0, .L558
	.loc 1 4572 22 view .LVU2554
	movs	r4, #7
.L558:
.LVL884:
	.loc 1 4573 4 is_stmt 1 view .LVU2555
	.loc 1 4573 7 is_stmt 0 view .LVU2556
	cmp	r8, #1
	beq	.L576
.LVL885:
.L559:
	.loc 1 4574 4 is_stmt 1 view .LVU2557
	.loc 1 4574 7 is_stmt 0 view .LVU2558
	cmp	r8, #-1
	beq	.L571
	.loc 1 4575 4 is_stmt 1 view .LVU2559
	.loc 1 4575 7 is_stmt 0 view .LVU2560
	cbz	r4, .L577
.LVL886:
.L560:
	.loc 1 4576 4 is_stmt 1 view .LVU2561
	.loc 1 4577 4 view .LVU2562
	.loc 1 4577 7 is_stmt 0 view .LVU2563
	cbz	r4, .L578
.LVL887:
.L561:
	.loc 1 4600 4 is_stmt 1 view .LVU2564
	.loc 1 4600 7 is_stmt 0 view .LVU2565
	cmp	r4, #0
	beq	.L579
.L565:
	.loc 1 4601 4 is_stmt 1 view .LVU2566
	.loc 1 4601 7 is_stmt 0 view .LVU2567
	cmp	r4, #0
	bne	.L566
	.loc 1 4614 6 is_stmt 1 view .LVU2568
	.loc 1 4614 10 is_stmt 0 view .LVU2569
	ldr	r4, [sp, #40]
.LVL888:
	.loc 1 4615 6 is_stmt 1 view .LVU2570
	ldr	r1, .L581
	add	r0, r4, #22
	bl	st_dword
.LVL889:
	.loc 1 4616 6 view .LVU2571
	mov	r2, r8
	mov	r1, r4
	ldr	r0, [sp, #8]
	bl	st_clust
.LVL890:
	.loc 1 4617 6 view .LVU2572
	.loc 1 4617 20 is_stmt 0 view .LVU2573
	movs	r3, #16
	strb	r3, [r4, #11]
	.loc 1 4618 6 is_stmt 1 view .LVU2574
	.loc 1 4618 16 is_stmt 0 view .LVU2575
	ldr	r3, [sp, #8]
	movs	r2, #1
	strb	r2, [r3, #3]
	.loc 1 4620 5 is_stmt 1 view .LVU2576
	.loc 1 4620 23 view .LVU2577
	.loc 1 4620 29 is_stmt 0 view .LVU2578
	ldr	r0, [sp, #8]
	bl	sync_fs
.LVL891:
	mov	r4, r0
.LVL892:
	.loc 1 4620 29 view .LVU2579
	b	.L557
.LVL893:
.L576:
	.loc 1 4573 22 view .LVU2580
	movs	r4, #2
.LVL894:
	.loc 1 4573 22 view .LVU2581
	b	.L559
.LVL895:
.L577:
	.loc 1 4575 22 is_stmt 1 discriminator 1 view .LVU2582
	.loc 1 4575 28 is_stmt 0 discriminator 1 view .LVU2583
	mov	r0, r2
.LVL896:
	.loc 1 4575 28 discriminator 1 view .LVU2584
	bl	sync_window
.LVL897:
	mov	r4, r0
.LVL898:
	.loc 1 4575 28 discriminator 1 view .LVU2585
	b	.L560
.LVL899:
.L571:
	.loc 1 4574 31 view .LVU2586
	movs	r4, #1
.LVL900:
	.loc 1 4574 31 view .LVU2587
	b	.L560
.LVL901:
.L578:
	.loc 1 4578 5 is_stmt 1 view .LVU2588
	.loc 1 4578 11 is_stmt 0 view .LVU2589
	ldr	r5, [sp, #8]
	mov	r1, r8
	mov	r0, r5
	bl	clust2sect
.LVL902:
	mov	r6, r0
.LVL903:
	.loc 1 4579 5 is_stmt 1 view .LVU2590
	.loc 1 4579 9 is_stmt 0 view .LVU2591
	add	r9, r5, #48
.LVL904:
	.loc 1 4580 5 is_stmt 1 view .LVU2592
	mov	r2, #512
	movs	r1, #0
	mov	r0, r9
.LVL905:
	.loc 1 4580 5 is_stmt 0 view .LVU2593
	bl	mem_set
.LVL906:
	.loc 1 4581 5 is_stmt 1 view .LVU2594
	.loc 1 4582 6 view .LVU2595
	movs	r2, #11
	movs	r1, #32
	mov	r0, r9
	bl	mem_set
.LVL907:
	.loc 1 4583 6 view .LVU2596
	.loc 1 4583 20 is_stmt 0 view .LVU2597
	mov	r10, #46
	strb	r10, [r5, #48]
	.loc 1 4584 6 is_stmt 1 view .LVU2598
	.loc 1 4584 20 is_stmt 0 view .LVU2599
	movs	r3, #16
	strb	r3, [r5, #59]
	.loc 1 4585 6 is_stmt 1 view .LVU2600
	ldr	r1, .L581
	add	r0, r5, #70
	bl	st_dword
.LVL908:
	.loc 1 4586 6 view .LVU2601
	mov	r2, r8
	mov	r1, r9
	ldr	r0, [sp, #8]
	bl	st_clust
.LVL909:
	.loc 1 4587 6 view .LVU2602
	.loc 1 4587 18 is_stmt 0 view .LVU2603
	add	r7, r5, #80
	.loc 1 4587 6 view .LVU2604
	movs	r2, #32
	mov	r1, r9
	mov	r0, r7
	bl	mem_cpy
.LVL910:
	.loc 1 4588 6 is_stmt 1 view .LVU2605
	.loc 1 4588 22 is_stmt 0 view .LVU2606
	strb	r10, [r5, #81]
	.loc 1 4588 29 is_stmt 1 view .LVU2607
	.loc 1 4588 33 is_stmt 0 view .LVU2608
	ldr	r2, [sp, #20]
.LVL911:
	.loc 1 4589 6 is_stmt 1 view .LVU2609
	.loc 1 4589 12 is_stmt 0 view .LVU2610
	ldr	r0, [sp, #8]
	ldrb	r3, [r0]	@ zero_extendqisi2
	.loc 1 4589 9 view .LVU2611
	cmp	r3, #3
	beq	.L580
.LVL912:
.L562:
	.loc 1 4590 6 is_stmt 1 view .LVU2612
	mov	r1, r7
	bl	st_clust
.LVL913:
	.loc 1 4592 5 view .LVU2613
	.loc 1 4592 16 is_stmt 0 view .LVU2614
	ldr	r3, [sp, #8]
	ldrh	r5, [r3, #10]
.LVL914:
.L563:
	.loc 1 4592 5 discriminator 1 view .LVU2615
	cmp	r5, #0
	beq	.L561
	.loc 1 4593 6 is_stmt 1 view .LVU2616
	.loc 1 4593 23 is_stmt 0 view .LVU2617
	adds	r7, r6, #1
.LVL915:
	.loc 1 4593 8 view .LVU2618
	ldr	r3, [sp, #8]
	.loc 1 4593 18 view .LVU2619
	str	r6, [r3, #44]
	.loc 1 4594 6 is_stmt 1 view .LVU2620
	.loc 1 4594 16 is_stmt 0 view .LVU2621
	movs	r2, #1
	strb	r2, [r3, #3]
	.loc 1 4595 6 is_stmt 1 view .LVU2622
	.loc 1 4595 12 is_stmt 0 view .LVU2623
	ldr	r0, [sp, #8]
	bl	sync_window
.LVL916:
	.loc 1 4596 6 is_stmt 1 view .LVU2624
	.loc 1 4596 9 is_stmt 0 view .LVU2625
	mov	r4, r0
	cmp	r0, #0
	bne	.L561
	.loc 1 4597 6 is_stmt 1 discriminator 2 view .LVU2626
	mov	r2, #512
	movs	r1, #0
	mov	r0, r9
.LVL917:
	.loc 1 4597 6 is_stmt 0 discriminator 2 view .LVU2627
	bl	mem_set
.LVL918:
	.loc 1 4592 29 discriminator 2 view .LVU2628
	subs	r5, r5, #1
.LVL919:
	.loc 1 4593 23 discriminator 2 view .LVU2629
	mov	r6, r7
	b	.L563
.LVL920:
.L580:
	.loc 1 4589 46 discriminator 1 view .LVU2630
	ldr	r3, [r0, #36]
	.loc 1 4589 34 discriminator 1 view .LVU2631
	cmp	r3, r2
	bne	.L562
	.loc 1 4589 61 view .LVU2632
	movs	r2, #0
.LVL921:
	.loc 1 4589 61 view .LVU2633
	b	.L562
.LVL922:
.L579:
	.loc 1 4600 22 is_stmt 1 discriminator 1 view .LVU2634
	.loc 1 4600 28 is_stmt 0 discriminator 1 view .LVU2635
	add	r0, sp, #12
	bl	dir_register
.LVL923:
	mov	r4, r0
.LVL924:
	.loc 1 4600 28 discriminator 1 view .LVU2636
	b	.L565
.L566:
	.loc 1 4622 5 is_stmt 1 view .LVU2637
	movs	r2, #0
	mov	r1, r8
	add	r0, sp, #12
	bl	remove_chain
.LVL925:
	b	.L557
.LVL926:
.L567:
	.loc 1 4564 25 is_stmt 0 view .LVU2638
	movs	r4, #8
	b	.L557
.L582:
	.align	2
.L581:
	.word	1210122240
.LFE46:
	.size	f_mkdir, .-f_mkdir
	.section	.text.f_rename,"ax",%progbits
	.align	1
	.global	f_rename
	.syntax unified
	.thumb
	.thumb_func
	.fpu fpv4-sp-d16
	.type	f_rename, %function
f_rename:
.LVL927:
.LFB47:
	.loc 1 4642 1 is_stmt 1 view -0
	@ args = 0, pretend = 0, frame = 128
	@ frame_needed = 0, uses_anonymous_args = 0
	.loc 1 4642 1 is_stmt 0 view .LVU2640
	push	{r4, r5, lr}
.LCFI93:
	sub	sp, sp, #132
.LCFI94:
	str	r0, [sp, #4]
	str	r1, [sp]
	.loc 1 4643 2 is_stmt 1 view .LVU2641
	.loc 1 4644 2 view .LVU2642
	.loc 1 4645 2 view .LVU2643
	.loc 1 4646 2 view .LVU2644
	.loc 1 4647 2 view .LVU2645
	.loc 1 4651 2 view .LVU2646
	mov	r0, sp
.LVL928:
	.loc 1 4651 2 is_stmt 0 view .LVU2647
	bl	get_ldnumber
.LVL929:
	.loc 1 4652 2 is_stmt 1 view .LVU2648
	.loc 1 4652 8 is_stmt 0 view .LVU2649
	movs	r2, #2
	add	r1, sp, #36
	add	r0, sp, #4
	bl	find_volume
.LVL930:
	.loc 1 4653 2 is_stmt 1 view .LVU2650
	.loc 1 4653 5 is_stmt 0 view .LVU2651
	mov	r4, r0
	cbz	r0, .L593
.LVL931:
.L584:
	.loc 1 4726 16 is_stmt 1 view .LVU2652
	.loc 1 4729 2 view .LVU2653
	.loc 1 4730 1 is_stmt 0 view .LVU2654
	mov	r0, r4
	add	sp, sp, #132
.LCFI95:
	@ sp needed
	pop	{r4, r5, pc}
.LVL932:
.L593:
.LCFI96:
	.loc 1 4654 3 is_stmt 1 view .LVU2655
	.loc 1 4654 14 is_stmt 0 view .LVU2656
	ldr	r3, [sp, #36]
	str	r3, [sp, #84]
	.loc 1 4655 18 is_stmt 1 view .LVU2657
	.loc 1 4656 3 view .LVU2658
	.loc 1 4656 9 is_stmt 0 view .LVU2659
	ldr	r1, [sp, #4]
	add	r0, sp, #84
.LVL933:
	.loc 1 4656 9 view .LVU2660
	bl	follow_path
.LVL934:
	.loc 1 4657 3 is_stmt 1 view .LVU2661
	.loc 1 4657 6 is_stmt 0 view .LVU2662
	mov	r4, r0
	cbnz	r0, .L585
	.loc 1 4657 30 discriminator 1 view .LVU2663
	ldrb	r3, [sp, #127]	@ zero_extendqisi2
	.loc 1 4657 20 discriminator 1 view .LVU2664
	tst	r3, #160
	bne	.L589
.L585:
.LVL935:
	.loc 1 4661 3 is_stmt 1 view .LVU2665
	.loc 1 4661 6 is_stmt 0 view .LVU2666
	cmp	r4, #0
	bne	.L584
	.loc 1 4688 5 is_stmt 1 view .LVU2667
	movs	r2, #21
	ldr	r1, [sp, #112]
	adds	r1, r1, #11
	add	r0, sp, #12
	bl	mem_cpy
.LVL936:
	.loc 1 4689 5 view .LVU2668
	movs	r2, #44
	add	r1, sp, #84
	add	r0, sp, #40
	bl	mem_cpy
.LVL937:
	.loc 1 4690 5 view .LVU2669
	.loc 1 4690 11 is_stmt 0 view .LVU2670
	ldr	r1, [sp]
	add	r0, sp, #40
	bl	follow_path
.LVL938:
	.loc 1 4691 5 is_stmt 1 view .LVU2671
	.loc 1 4691 8 is_stmt 0 view .LVU2672
	mov	r4, r0
	cbnz	r0, .L586
	.loc 1 4692 6 is_stmt 1 view .LVU2673
	.loc 1 4692 84 is_stmt 0 view .LVU2674
	ldr	r2, [sp, #48]
	ldr	r3, [sp, #92]
	cmp	r2, r3
	beq	.L594
	movs	r4, #8
	b	.L587
.L594:
	.loc 1 4692 46 discriminator 1 view .LVU2675
	ldr	r2, [sp, #56]
	ldr	r3, [sp, #100]
	cmp	r2, r3
	beq	.L588
	.loc 1 4692 84 view .LVU2676
	movs	r4, #8
	b	.L587
.L586:
	.loc 1 4694 5 is_stmt 1 view .LVU2677
	.loc 1 4694 8 is_stmt 0 view .LVU2678
	cmp	r0, #4
	beq	.L588
.LVL939:
.L587:
	.loc 1 4718 4 is_stmt 1 view .LVU2679
	.loc 1 4718 7 is_stmt 0 view .LVU2680
	cmp	r4, #0
	bne	.L584
	.loc 1 4719 5 is_stmt 1 view .LVU2681
	.loc 1 4719 11 is_stmt 0 view .LVU2682
	add	r0, sp, #84
	bl	dir_remove
.LVL940:
	.loc 1 4720 5 is_stmt 1 view .LVU2683
	.loc 1 4720 8 is_stmt 0 view .LVU2684
	mov	r4, r0
	cmp	r0, #0
	bne	.L584
	.loc 1 4721 6 is_stmt 1 view .LVU2685
	.loc 1 4721 12 is_stmt 0 view .LVU2686
	ldr	r0, [sp, #36]
.LVL941:
	.loc 1 4721 12 view .LVU2687
	bl	sync_fs
.LVL942:
	mov	r4, r0
.LVL943:
	.loc 1 4721 12 view .LVU2688
	b	.L584
.LVL944:
.L588:
	.loc 1 4695 6 is_stmt 1 view .LVU2689
	.loc 1 4695 12 is_stmt 0 view .LVU2690
	add	r0, sp, #40
.LVL945:
	.loc 1 4695 12 view .LVU2691
	bl	dir_register
.LVL946:
	.loc 1 4696 6 is_stmt 1 view .LVU2692
	.loc 1 4696 9 is_stmt 0 view .LVU2693
	mov	r4, r0
	cmp	r0, #0
	bne	.L587
	.loc 1 4697 7 is_stmt 1 view .LVU2694
	.loc 1 4697 11 is_stmt 0 view .LVU2695
	ldr	r5, [sp, #68]
.LVL947:
	.loc 1 4698 7 is_stmt 1 view .LVU2696
	movs	r2, #19
	add	r1, sp, #14
	add	r0, r5, #13
.LVL948:
	.loc 1 4698 7 is_stmt 0 view .LVU2697
	bl	mem_cpy
.LVL949:
	.loc 1 4699 7 is_stmt 1 view .LVU2698
	.loc 1 4699 26 is_stmt 0 view .LVU2699
	ldrb	r3, [sp, #12]	@ zero_extendqisi2
	.loc 1 4699 21 view .LVU2700
	orr	r3, r3, #32
	strb	r3, [r5, #11]
	.loc 1 4700 7 is_stmt 1 view .LVU2701
	.loc 1 4700 17 is_stmt 0 view .LVU2702
	ldr	r3, [sp, #36]
	movs	r2, #1
	strb	r2, [r3, #3]
	.loc 1 4701 7 is_stmt 1 view .LVU2703
	.loc 1 4701 15 is_stmt 0 view .LVU2704
	ldrb	r3, [r5, #11]	@ zero_extendqisi2
	.loc 1 4701 10 view .LVU2705
	tst	r3, #16
	beq	.L587
	.loc 1 4701 36 discriminator 1 view .LVU2706
	ldr	r2, [sp, #92]
	ldr	r3, [sp, #48]
	cmp	r2, r3
	beq	.L587
	.loc 1 4702 8 is_stmt 1 view .LVU2707
	.loc 1 4702 13 is_stmt 0 view .LVU2708
	ldr	r4, [sp, #36]
	mov	r1, r5
	mov	r0, r4
	bl	ld_clust
.LVL950:
	mov	r1, r0
	mov	r0, r4
	bl	clust2sect
.LVL951:
	.loc 1 4703 8 is_stmt 1 view .LVU2709
	.loc 1 4703 11 is_stmt 0 view .LVU2710
	mov	r1, r0
	cbnz	r0, .L595
	.loc 1 4704 13 view .LVU2711
	movs	r4, #2
	b	.L584
.L595:
	.loc 1 4707 9 is_stmt 1 view .LVU2712
	.loc 1 4707 15 is_stmt 0 view .LVU2713
	mov	r0, r4
.LVL952:
	.loc 1 4707 15 view .LVU2714
	bl	move_window
.LVL953:
	.loc 1 4708 9 is_stmt 1 view .LVU2715
	.loc 1 4708 17 is_stmt 0 view .LVU2716
	ldr	r3, [sp, #36]
	.loc 1 4708 13 view .LVU2717
	add	r1, r3, #80
.LVL954:
	.loc 1 4709 9 is_stmt 1 view .LVU2718
	.loc 1 4709 12 is_stmt 0 view .LVU2719
	mov	r4, r0
	cmp	r0, #0
	bne	.L587
	.loc 1 4709 32 discriminator 1 view .LVU2720
	ldrb	r2, [r3, #81]	@ zero_extendqisi2
	.loc 1 4709 26 discriminator 1 view .LVU2721
	cmp	r2, #46
	bne	.L587
	.loc 1 4710 10 is_stmt 1 view .LVU2722
	ldr	r2, [sp, #48]
	mov	r0, r3
.LVL955:
	.loc 1 4710 10 is_stmt 0 view .LVU2723
	bl	st_clust
.LVL956:
	.loc 1 4711 10 is_stmt 1 view .LVU2724
	.loc 1 4711 20 is_stmt 0 view .LVU2725
	ldr	r3, [sp, #36]
	movs	r2, #1
	strb	r2, [r3, #3]
	b	.L587
.LVL957:
.L589:
	.loc 1 4657 68 view .LVU2726
	movs	r4, #6
	b	.L584
.LFE47:
	.size	f_rename, .-f_rename
	.section	.text.f_mkfs,"ax",%progbits
	.align	1
	.global	f_mkfs
	.syntax unified
	.thumb
	.thumb_func
	.fpu fpv4-sp-d16
	.type	f_mkfs, %function
f_mkfs:
.LVL958:
.LFB48:
	.loc 1 5218 1 is_stmt 1 view -0
	@ args = 4, pretend = 0, frame = 48
	@ frame_needed = 0, uses_anonymous_args = 0
	.loc 1 5218 1 is_stmt 0 view .LVU2728
	push	{r4, r5, r6, r7, r8, r9, r10, fp, lr}
.LCFI97:
	sub	sp, sp, #52
.LCFI98:
	str	r0, [sp, #36]
	mov	r8, r1
	mov	r6, r2
	str	r3, [sp, #4]
	.loc 1 5219 2 is_stmt 1 view .LVU2729
.LVL959:
	.loc 1 5220 2 view .LVU2730
	.loc 1 5221 2 view .LVU2731
	.loc 1 5222 2 view .LVU2732
	.loc 1 5223 2 view .LVU2733
	.loc 1 5224 2 view .LVU2734
	.loc 1 5225 2 view .LVU2735
	.loc 1 5226 2 view .LVU2736
	.loc 1 5227 2 view .LVU2737
	.loc 1 5228 2 view .LVU2738
	.loc 1 5229 2 view .LVU2739
	.loc 1 5230 2 view .LVU2740
	.loc 1 5237 2 view .LVU2741
	.loc 1 5237 8 is_stmt 0 view .LVU2742
	add	r0, sp, #36
.LVL960:
	.loc 1 5237 8 view .LVU2743
	bl	get_ldnumber
.LVL961:
	.loc 1 5238 2 is_stmt 1 view .LVU2744
	.loc 1 5238 5 is_stmt 0 view .LVU2745
	cmp	r0, #0
	.loc 1 5238 5 view .LVU2746
	blt	.L641
	.loc 1 5239 2 is_stmt 1 view .LVU2747
	.loc 1 5239 11 is_stmt 0 view .LVU2748
	ldr	r3, .L691
	ldr	r3, [r3, r0, lsl #2]
	.loc 1 5239 5 view .LVU2749
	cbz	r3, .L598
	.loc 1 5239 18 is_stmt 1 discriminator 1 view .LVU2750
	.loc 1 5239 38 is_stmt 0 discriminator 1 view .LVU2751
	movs	r2, #0
	strb	r2, [r3]
.L598:
	.loc 1 5240 2 is_stmt 1 view .LVU2752
	.loc 1 5240 7 is_stmt 0 view .LVU2753
	uxtb	r4, r0
.LVL962:
	.loc 1 5241 2 is_stmt 1 view .LVU2754
	.loc 1 5244 2 view .LVU2755
	.loc 1 5244 9 is_stmt 0 view .LVU2756
	mov	r0, r4
.LVL963:
	.loc 1 5244 9 view .LVU2757
	bl	disk_initialize
.LVL964:
	.loc 1 5245 2 is_stmt 1 view .LVU2758
	.loc 1 5245 5 is_stmt 0 view .LVU2759
	tst	r0, #1
	bne	.L642
	.loc 1 5246 2 is_stmt 1 view .LVU2760
	.loc 1 5246 5 is_stmt 0 view .LVU2761
	tst	r0, #4
	bne	.L643
	.loc 1 5247 2 is_stmt 1 view .LVU2762
	.loc 1 5247 6 is_stmt 0 view .LVU2763
	add	r2, sp, #44
	movs	r1, #3
	mov	r0, r4
.LVL965:
	.loc 1 5247 6 view .LVU2764
	bl	disk_ioctl
.LVL966:
	.loc 1 5247 5 view .LVU2765
	cbnz	r0, .L599
	.loc 1 5247 61 discriminator 2 view .LVU2766
	ldr	r3, [sp, #44]
	.loc 1 5247 58 discriminator 2 view .LVU2767
	cbz	r3, .L599
	.loc 1 5247 69 discriminator 4 view .LVU2768
	cmp	r3, #32768
	bhi	.L599
	.loc 1 5247 108 discriminator 6 view .LVU2769
	subs	r2, r3, #1
	.loc 1 5247 87 discriminator 6 view .LVU2770
	tst	r3, r2
	beq	.L600
.L599:
	.loc 1 5247 115 is_stmt 1 discriminator 7 view .LVU2771
	.loc 1 5247 122 is_stmt 0 discriminator 7 view .LVU2772
	movs	r3, #1
	str	r3, [sp, #44]
.L600:
	.loc 1 5252 2 is_stmt 1 view .LVU2773
.LVL967:
	.loc 1 5254 2 view .LVU2774
	.loc 1 5254 5 is_stmt 0 view .LVU2775
	cbz	r6, .L601
	.loc 1 5254 15 discriminator 1 view .LVU2776
	cmp	r6, #512
	bcc	.L644
.L601:
	.loc 1 5254 27 discriminator 4 view .LVU2777
	cmp	r6, #16777216
	bhi	.L645
	.loc 1 5254 58 discriminator 6 view .LVU2778
	subs	r3, r6, #1
	.loc 1 5254 45 discriminator 6 view .LVU2779
	ands	fp, r3, r6
	bne	.L646
	.loc 1 5255 2 is_stmt 1 view .LVU2780
	.loc 1 5255 5 is_stmt 0 view .LVU2781
	lsr	r9, r6, #9
.LVL968:
	.loc 1 5258 2 is_stmt 1 view .LVU2782
	.loc 1 5259 2 view .LVU2783
	.loc 1 5259 9 is_stmt 0 view .LVU2784
	ldr	r3, [sp, #88]
	lsrs	r3, r3, #9
	str	r3, [sp, #8]
.LVL969:
	.loc 1 5260 2 is_stmt 1 view .LVU2785
	.loc 1 5260 10 is_stmt 0 view .LVU2786
	ldr	r3, [sp, #88]
.LVL970:
	.loc 1 5260 10 view .LVU2787
	bic	r5, r3, #510
	bic	r5, r5, #1
.LVL971:
	.loc 1 5261 2 is_stmt 1 view .LVU2788
	.loc 1 5261 5 is_stmt 0 view .LVU2789
	cmp	r5, #0
	beq	.L647
	.loc 1 5264 2 is_stmt 1 view .LVU2790
	.loc 1 5274 3 view .LVU2791
	.loc 1 5274 7 is_stmt 0 view .LVU2792
	add	r2, sp, #40
	movs	r1, #1
	mov	r0, r4
	bl	disk_ioctl
.LVL972:
	.loc 1 5274 6 view .LVU2793
	cmp	r0, #0
	bne	.L648
	.loc 1 5275 3 is_stmt 1 view .LVU2794
	.loc 1 5275 30 is_stmt 0 view .LVU2795
	ands	r3, r8, #8
	str	r3, [sp, #12]
	beq	.L649
	mov	r7, fp
.L602:
.LVL973:
	.loc 1 5276 3 is_stmt 1 discriminator 4 view .LVU2796
	.loc 1 5276 14 is_stmt 0 discriminator 4 view .LVU2797
	ldr	r2, [sp, #40]
	.loc 1 5276 6 discriminator 4 view .LVU2798
	cmp	r2, r7
	bcc	.L650
	.loc 1 5277 3 is_stmt 1 view .LVU2799
	.loc 1 5277 10 is_stmt 0 view .LVU2800
	subs	r2, r2, r7
	str	r2, [sp, #40]
	.loc 1 5279 2 is_stmt 1 view .LVU2801
	.loc 1 5279 5 is_stmt 0 view .LVU2802
	cmp	r2, #127
	bls	.L651
	.loc 1 5282 2 is_stmt 1 view .LVU2803
	.loc 1 5283 3 view .LVU2804
	.loc 1 5288 3 view .LVU2805
	.loc 1 5288 6 is_stmt 0 view .LVU2806
	cmp	r6, #66048
	bcs	.L652
	.loc 1 5289 3 is_stmt 1 view .LVU2807
	.loc 1 5289 6 is_stmt 0 view .LVU2808
	ands	r0, r8, #2
	beq	.L603
	.loc 1 5290 4 is_stmt 1 view .LVU2809
	.loc 1 5290 7 is_stmt 0 view .LVU2810
	and	r3, r8, #7
	cmp	r3, #2
	beq	.L653
	.loc 1 5290 35 discriminator 1 view .LVU2811
	tst	r8, #1
	beq	.L654
.L603:
	.loc 1 5294 3 is_stmt 1 view .LVU2812
	.loc 1 5294 6 is_stmt 0 view .LVU2813
	tst	r8, #1
	beq	.L655
	.loc 1 5295 7 view .LVU2814
	mov	r10, #2
	str	r4, [sp, #16]
	str	r5, [sp, #20]
	mov	r5, r9
.LVL974:
.L605:
	.loc 1 5461 3 is_stmt 1 view .LVU2815
	.loc 1 5462 4 view .LVU2816
	.loc 1 5464 4 view .LVU2817
	.loc 1 5464 7 is_stmt 0 view .LVU2818
	cmp	r10, #3
	beq	.L623
	.loc 1 5475 5 is_stmt 1 view .LVU2819
	.loc 1 5475 8 is_stmt 0 view .LVU2820
	cmp	r5, #0
	beq	.L680
	mov	r8, r5
.LVL975:
.L611:
	.loc 1 5479 5 is_stmt 1 view .LVU2821
	.loc 1 5479 12 is_stmt 0 view .LVU2822
	udiv	r3, r2, r8
.LVL976:
	.loc 1 5480 5 is_stmt 1 view .LVU2823
	.loc 1 5480 8 is_stmt 0 view .LVU2824
	movw	r1, #4085
	cmp	r3, r1
	bls	.L614
	.loc 1 5481 6 is_stmt 1 view .LVU2825
	.loc 1 5481 21 is_stmt 0 view .LVU2826
	adds	r6, r3, #2
	.loc 1 5481 8 view .LVU2827
	lsls	r6, r6, #1
.LVL977:
.L615:
	.loc 1 5486 5 is_stmt 1 view .LVU2828
	.loc 1 5486 22 is_stmt 0 view .LVU2829
	addw	r6, r6, #511
.LVL978:
	.loc 1 5486 12 view .LVU2830
	lsrs	r6, r6, #9
.LVL979:
	.loc 1 5487 5 is_stmt 1 view .LVU2831
	.loc 1 5488 5 view .LVU2832
	.loc 1 5488 12 is_stmt 0 view .LVU2833
	mov	lr, #32
	.loc 1 5487 12 view .LVU2834
	mov	ip, #1
.LVL980:
.L610:
	.loc 1 5490 4 is_stmt 1 view .LVU2835
	.loc 1 5490 10 is_stmt 0 view .LVU2836
	add	r9, ip, r7
.LVL981:
	.loc 1 5491 4 is_stmt 1 view .LVU2837
	.loc 1 5491 19 is_stmt 0 view .LVU2838
	add	r3, r6, r9
	.loc 1 5491 11 view .LVU2839
	add	r3, r3, lr
.LVL982:
	.loc 1 5494 4 is_stmt 1 view .LVU2840
	.loc 1 5494 17 is_stmt 0 view .LVU2841
	ldr	r4, [sp, #44]
	adds	r1, r4, r3
	.loc 1 5494 26 view .LVU2842
	subs	r1, r1, #1
	.loc 1 5494 33 view .LVU2843
	rsbs	r4, r4, #0
	.loc 1 5494 31 view .LVU2844
	ands	r4, r4, r1
	.loc 1 5494 6 view .LVU2845
	subs	r4, r4, r3
.LVL983:
	.loc 1 5495 4 is_stmt 1 view .LVU2846
	.loc 1 5495 7 is_stmt 0 view .LVU2847
	cmp	r10, #3
	beq	.L681
	.loc 1 5498 5 is_stmt 1 view .LVU2848
	.loc 1 5498 12 is_stmt 0 view .LVU2849
	add	r6, r6, r4
.LVL984:
.L617:
	.loc 1 5502 4 is_stmt 1 view .LVU2850
	.loc 1 5502 24 is_stmt 0 view .LVU2851
	add	r3, r3, r8, lsl #4
.LVL985:
	.loc 1 5502 35 view .LVU2852
	subs	r3, r3, r7
	.loc 1 5502 7 view .LVU2853
	cmp	r2, r3
	bcc	.L659
	.loc 1 5503 4 is_stmt 1 view .LVU2854
	.loc 1 5503 21 is_stmt 0 view .LVU2855
	sub	r3, r2, ip
	.loc 1 5503 30 view .LVU2856
	subs	r3, r3, r6
	.loc 1 5503 48 view .LVU2857
	sub	r3, r3, lr
	.loc 1 5503 11 view .LVU2858
	udiv	r3, r3, r8
.LVL986:
	.loc 1 5504 4 is_stmt 1 view .LVU2859
	.loc 1 5504 7 is_stmt 0 view .LVU2860
	cmp	r10, #3
	beq	.L682
.L618:
	.loc 1 5510 4 is_stmt 1 view .LVU2861
	.loc 1 5510 7 is_stmt 0 view .LVU2862
	cmp	r10, #2
	bne	.L620
	.loc 1 5511 5 is_stmt 1 view .LVU2863
	.loc 1 5511 8 is_stmt 0 view .LVU2864
	movw	r1, #65525
	cmp	r3, r1
	bls	.L621
	.loc 1 5512 6 is_stmt 1 view .LVU2865
	.loc 1 5512 9 is_stmt 0 view .LVU2866
	cbnz	r5, .L622
	.loc 1 5512 22 discriminator 1 view .LVU2867
	lsl	r3, r8, #1
.LVL987:
	.loc 1 5512 14 discriminator 1 view .LVU2868
	cmp	r3, #64
	bls	.L661
.L622:
	.loc 1 5515 6 is_stmt 1 view .LVU2869
	.loc 1 5515 9 is_stmt 0 view .LVU2870
	cbnz	r0, .L662
	.loc 1 5518 6 is_stmt 1 view .LVU2871
	.loc 1 5518 9 is_stmt 0 view .LVU2872
	cmp	r5, #0
	bne	.L663
	.loc 1 5518 21 discriminator 1 view .LVU2873
	lsl	r5, r8, #1
.LVL988:
	.loc 1 5518 14 discriminator 1 view .LVU2874
	cmp	r5, #128
	bls	.L605
	.loc 1 5519 13 view .LVU2875
	movs	r3, #14
	b	.L597
.LVL989:
.L649:
	.loc 1 5275 30 view .LVU2876
	movs	r7, #63
	b	.L602
.LVL990:
.L653:
	.loc 1 5291 9 view .LVU2877
	mov	r10, #3
	str	r4, [sp, #16]
	str	r5, [sp, #20]
	mov	r5, r9
.LVL991:
	.loc 1 5291 9 view .LVU2878
	b	.L605
.LVL992:
.L654:
	.loc 1 5291 9 view .LVU2879
	mov	r10, #3
	str	r4, [sp, #16]
	str	r5, [sp, #20]
	mov	r5, r9
.LVL993:
	.loc 1 5291 9 view .LVU2880
	b	.L605
.LVL994:
.L661:
	.loc 1 5513 10 view .LVU2881
	mov	r5, r3
.LVL995:
	.loc 1 5513 10 view .LVU2882
	b	.L605
.LVL996:
.L662:
	.loc 1 5516 11 view .LVU2883
	mov	r10, #3
.LVL997:
.L623:
	.loc 1 5465 5 is_stmt 1 view .LVU2884
	.loc 1 5465 8 is_stmt 0 view .LVU2885
	cbz	r5, .L683
	mov	r8, r5
.L607:
.LVL998:
	.loc 1 5469 5 is_stmt 1 view .LVU2886
	.loc 1 5469 12 is_stmt 0 view .LVU2887
	udiv	r3, r2, r8
.LVL999:
	.loc 1 5470 5 is_stmt 1 view .LVU2888
	.loc 1 5470 26 is_stmt 0 view .LVU2889
	adds	r6, r3, #2
	lsls	r6, r6, #2
	.loc 1 5470 35 view .LVU2890
	addw	r6, r6, #511
	.loc 1 5470 12 view .LVU2891
	lsrs	r6, r6, #9
.LVL1000:
	.loc 1 5471 5 is_stmt 1 view .LVU2892
	.loc 1 5472 5 view .LVU2893
	.loc 1 5473 5 view .LVU2894
	.loc 1 5473 29 is_stmt 0 view .LVU2895
	sub	r3, r3, #65280
.LVL1001:
	.loc 1 5473 29 view .LVU2896
	subs	r3, r3, #246
.LVL1002:
	.loc 1 5473 8 view .LVU2897
	ldr	r1, .L691+4
	cmp	r3, r1
	bhi	.L657
	.loc 1 5472 12 view .LVU2898
	mov	lr, fp
	.loc 1 5471 12 view .LVU2899
	mov	ip, #32
	b	.L610
.LVL1003:
.L683:
	.loc 1 5466 6 is_stmt 1 view .LVU2900
	.loc 1 5466 8 is_stmt 0 view .LVU2901
	lsrs	r4, r2, #17
.LVL1004:
	.loc 1 5467 6 is_stmt 1 view .LVU2902
	.loc 1 5467 13 is_stmt 0 view .LVU2903
	mov	r1, r5
	.loc 1 5467 22 view .LVU2904
	mov	r8, #1
.LVL1005:
.L608:
	.loc 1 5467 32 discriminator 1 view .LVU2905
	ldr	r3, .L691+8
	ldrh	r3, [r3, r1, lsl #1]
	.loc 1 5467 6 discriminator 1 view .LVU2906
	cmp	r3, #0
	beq	.L607
	.loc 1 5467 36 discriminator 3 view .LVU2907
	cmp	r3, r4
	bhi	.L607
	.loc 1 5467 70 is_stmt 1 discriminator 4 view .LVU2908
	.loc 1 5467 55 is_stmt 0 discriminator 4 view .LVU2909
	adds	r1, r1, #1
.LVL1006:
	.loc 1 5467 63 discriminator 4 view .LVU2910
	lsl	r8, r8, #1
.LVL1007:
	.loc 1 5467 63 discriminator 4 view .LVU2911
	b	.L608
.LVL1008:
.L680:
	.loc 1 5476 6 is_stmt 1 view .LVU2912
	.loc 1 5476 8 is_stmt 0 view .LVU2913
	lsrs	r4, r2, #12
.LVL1009:
	.loc 1 5477 6 is_stmt 1 view .LVU2914
	.loc 1 5477 13 is_stmt 0 view .LVU2915
	mov	r1, r5
	.loc 1 5477 22 view .LVU2916
	mov	r8, #1
	.loc 1 5477 6 view .LVU2917
	b	.L612
.LVL1010:
.L613:
	.loc 1 5477 66 is_stmt 1 discriminator 4 view .LVU2918
	.loc 1 5477 51 is_stmt 0 discriminator 4 view .LVU2919
	adds	r1, r1, #1
.LVL1011:
	.loc 1 5477 59 discriminator 4 view .LVU2920
	lsl	r8, r8, #1
.LVL1012:
.L612:
	.loc 1 5477 30 discriminator 1 view .LVU2921
	ldr	r3, .L691+12
	ldrh	r3, [r3, r1, lsl #1]
	.loc 1 5477 6 discriminator 1 view .LVU2922
	cmp	r3, #0
	beq	.L611
	.loc 1 5477 34 discriminator 3 view .LVU2923
	cmp	r3, r4
	bls	.L613
	b	.L611
.LVL1013:
.L614:
	.loc 1 5483 6 is_stmt 1 view .LVU2924
	.loc 1 5484 6 view .LVU2925
	.loc 1 5484 18 is_stmt 0 view .LVU2926
	add	r6, r3, r3, lsl #1
	.loc 1 5484 22 view .LVU2927
	adds	r6, r6, #1
	.loc 1 5484 27 view .LVU2928
	lsrs	r6, r6, #1
	.loc 1 5484 8 view .LVU2929
	adds	r6, r6, #3
.LVL1014:
	.loc 1 5483 10 view .LVU2930
	mov	r10, #1
	b	.L615
.LVL1015:
.L681:
	.loc 1 5496 5 is_stmt 1 view .LVU2931
	.loc 1 5496 12 is_stmt 0 view .LVU2932
	add	ip, ip, r4
.LVL1016:
	.loc 1 5496 18 is_stmt 1 view .LVU2933
	.loc 1 5496 24 is_stmt 0 view .LVU2934
	add	r9, r9, r4
.LVL1017:
	.loc 1 5496 24 view .LVU2935
	b	.L617
.LVL1018:
.L682:
	.loc 1 5505 5 is_stmt 1 view .LVU2936
	.loc 1 5505 8 is_stmt 0 view .LVU2937
	movw	r1, #65525
	cmp	r3, r1
	bhi	.L618
	.loc 1 5506 6 is_stmt 1 view .LVU2938
	.loc 1 5506 9 is_stmt 0 view .LVU2939
	cmp	r5, #0
	bne	.L660
	.loc 1 5506 21 discriminator 1 view .LVU2940
	lsr	r5, r8, #1
.LVL1019:
	.loc 1 5506 14 discriminator 1 view .LVU2941
	cmp	r8, #1
	bhi	.L605
	.loc 1 5507 13 view .LVU2942
	movs	r3, #14
.LVL1020:
	.loc 1 5507 13 view .LVU2943
	b	.L597
.LVL1021:
.L621:
	.loc 1 5521 5 is_stmt 1 view .LVU2944
	.loc 1 5521 9 is_stmt 0 view .LVU2945
	movw	r1, #4085
	cmp	r3, r1
	bhi	.L620
	.loc 1 5522 6 is_stmt 1 view .LVU2946
	.loc 1 5522 9 is_stmt 0 view .LVU2947
	cmp	r5, #0
	bne	.L664
	.loc 1 5522 21 discriminator 1 view .LVU2948
	lsl	r5, r8, #1
.LVL1022:
	.loc 1 5522 14 discriminator 1 view .LVU2949
	cmp	r5, #128
	bls	.L605
	.loc 1 5523 13 view .LVU2950
	movs	r3, #14
.LVL1023:
	.loc 1 5523 13 view .LVU2951
	b	.L597
.L692:
	.align	2
.L691:
	.word	.LANCHOR0
	.word	268369919
	.word	.LANCHOR2
	.word	.LANCHOR3
.LVL1024:
.L620:
	.loc 1 5523 13 view .LVU2952
	str	lr, [sp, #28]
	str	r9, [sp, #24]
	str	ip, [sp, #32]
	ldr	r4, [sp, #16]
.LVL1025:
	.loc 1 5523 13 view .LVU2953
	ldr	r5, [sp, #20]
.LVL1026:
	.loc 1 5523 13 view .LVU2954
	mov	r2, r3
	str	r3, [sp, #20]
.LVL1027:
	.loc 1 5526 4 is_stmt 1 view .LVU2955
	.loc 1 5526 7 is_stmt 0 view .LVU2956
	cmp	r10, #1
	bne	.L624
.LVL1028:
	.loc 1 5526 24 discriminator 1 view .LVU2957
	movw	r3, #4085
	cmp	r2, r3
	bhi	.L665
.L624:
	.loc 1 5529 4 is_stmt 1 view .LVU2958
	.loc 1 5537 3 view .LVU2959
	mov	r2, #512
.LVL1029:
	.loc 1 5537 3 is_stmt 0 view .LVU2960
	movs	r1, #0
	ldr	r9, [sp, #4]
.LVL1030:
	.loc 1 5537 3 view .LVU2961
	mov	r0, r9
	bl	mem_set
.LVL1031:
	.loc 1 5538 3 is_stmt 1 view .LVU2962
	movs	r2, #11
	ldr	r1, .L693
	mov	r0, r9
	bl	mem_cpy
.LVL1032:
	.loc 1 5539 3 view .LVU2963
	mov	r1, #512
	str	r9, [sp, #4]
.LVL1033:
	.loc 1 5539 3 is_stmt 0 view .LVU2964
	add	r0, r9, #11
	bl	st_word
.LVL1034:
	.loc 1 5540 3 is_stmt 1 view .LVU2965
	.loc 1 5540 23 is_stmt 0 view .LVU2966
	ldr	r3, [sp, #4]
	strb	r8, [r3, #13]
	.loc 1 5541 3 is_stmt 1 view .LVU2967
	ldrh	r1, [sp, #32]
	add	r0, r3, #14
	bl	st_word
.LVL1035:
	.loc 1 5542 3 view .LVU2968
	.loc 1 5542 20 is_stmt 0 view .LVU2969
	movs	r3, #1
	ldr	r2, [sp, #4]
	strb	r3, [r2, #16]
	.loc 1 5543 3 is_stmt 1 view .LVU2970
	add	r0, r2, #17
	cmp	r10, #3
	beq	.L684
	mov	r1, #512
.L625:
	.loc 1 5543 3 is_stmt 0 discriminator 4 view .LVU2971
	bl	st_word
.LVL1036:
	.loc 1 5544 3 is_stmt 1 discriminator 4 view .LVU2972
	.loc 1 5544 14 is_stmt 0 discriminator 4 view .LVU2973
	ldr	r1, [sp, #40]
	.loc 1 5544 6 discriminator 4 view .LVU2974
	cmp	r1, #65536
	bcs	.L626
	.loc 1 5545 4 is_stmt 1 view .LVU2975
	uxth	r1, r1
	ldr	r3, [sp, #4]
	add	r0, r3, #19
	bl	st_word
.LVL1037:
.L627:
	.loc 1 5549 3 view .LVU2976
	.loc 1 5549 18 is_stmt 0 view .LVU2977
	movs	r3, #248
	ldr	r2, [sp, #4]
	strb	r3, [r2, #21]
	.loc 1 5550 3 is_stmt 1 view .LVU2978
	movs	r1, #63
	add	r0, r2, #24
	bl	st_word
.LVL1038:
	.loc 1 5551 3 view .LVU2979
	movs	r1, #255
	ldr	r3, [sp, #4]
	add	r0, r3, #26
	bl	st_word
.LVL1039:
	.loc 1 5552 3 view .LVU2980
	mov	r1, r7
	ldr	r3, [sp, #4]
	add	r0, r3, #28
	bl	st_dword
.LVL1040:
	.loc 1 5553 3 view .LVU2981
	.loc 1 5553 6 is_stmt 0 view .LVU2982
	cmp	r10, #3
	beq	.L685
	.loc 1 5563 4 is_stmt 1 view .LVU2983
	ldr	r1, .L693+4
	ldr	r3, [sp, #4]
	add	r0, r3, #39
	bl	st_dword
.LVL1041:
	.loc 1 5564 4 view .LVU2984
	uxth	r1, r6
	ldr	r3, [sp, #4]
	add	r0, r3, #22
	bl	st_word
.LVL1042:
	.loc 1 5565 4 view .LVU2985
	.loc 1 5565 19 is_stmt 0 view .LVU2986
	movs	r3, #128
	ldr	r0, [sp, #4]
	strb	r3, [r0, #36]
	.loc 1 5566 4 is_stmt 1 view .LVU2987
	.loc 1 5566 20 is_stmt 0 view .LVU2988
	movs	r3, #41
	strb	r3, [r0, #38]
	.loc 1 5567 4 is_stmt 1 view .LVU2989
	movs	r2, #19
	ldr	r1, .L693+8
	adds	r0, r0, #43
	bl	mem_cpy
.LVL1043:
.L629:
	.loc 1 5569 3 view .LVU2990
	ldr	r3, [sp, #4]
	add	r3, r3, #510
	str	r3, [sp, #16]
.LVL1044:
	.loc 1 5569 3 is_stmt 0 view .LVU2991
	movw	r1, #43605
	mov	r0, r3
	bl	st_word
.LVL1045:
	.loc 1 5570 3 is_stmt 1 view .LVU2992
	.loc 1 5570 7 is_stmt 0 view .LVU2993
	movs	r3, #1
	mov	r2, r7
	ldr	r1, [sp, #4]
	mov	r0, r4
	bl	disk_write
.LVL1046:
	.loc 1 5570 6 view .LVU2994
	cmp	r0, #0
	bne	.L667
	.loc 1 5573 3 is_stmt 1 view .LVU2995
	.loc 1 5573 6 is_stmt 0 view .LVU2996
	cmp	r10, #3
	beq	.L686
.L630:
	.loc 1 5586 3 is_stmt 1 view .LVU2997
	mov	r2, r5
	movs	r1, #0
	ldr	r0, [sp, #4]
	bl	mem_set
.LVL1047:
	.loc 1 5587 3 view .LVU2998
	.loc 1 5588 3 view .LVU2999
	.loc 1 5588 3 is_stmt 0 view .LVU3000
	ldr	r9, [sp, #24]
	str	r8, [sp, #20]
.LVL1048:
	.loc 1 5588 3 view .LVU3001
	str	r7, [sp, #32]
.LVL1049:
	.loc 1 5588 3 view .LVU3002
	ldr	r7, [sp, #8]
.LVL1050:
.L631:
	.loc 1 5588 3 discriminator 1 view .LVU3003
	cmp	fp, #0
	beq	.L636
	.loc 1 5588 3 discriminator 1 view .LVU3004
	str	r9, [sp, #24]
.LVL1051:
	.loc 1 5588 3 discriminator 1 view .LVU3005
	ldr	r8, [sp, #20]
	ldr	r7, [sp, #32]
	.loc 1 5606 3 is_stmt 1 view .LVU3006
	.loc 1 5606 35 is_stmt 0 view .LVU3007
	cmp	r10, #3
	beq	.L687
	ldr	r6, [sp, #28]
.LVL1052:
	.loc 1 5606 35 view .LVU3008
	ldr	r8, [sp, #24]
	ldr	r9, [sp, #8]
.LVL1053:
.L638:
	.loc 1 5607 3 is_stmt 1 view .LVU3009
	.loc 1 5608 4 view .LVU3010
	.loc 1 5608 6 is_stmt 0 view .LVU3011
	mov	r5, r6
	cmp	r6, r9
	it	cs
	movcs	r5, r9
.LVL1054:
	.loc 1 5609 4 is_stmt 1 view .LVU3012
	.loc 1 5609 8 is_stmt 0 view .LVU3013
	mov	r3, r5
	mov	r2, r8
	ldr	r1, [sp, #4]
	mov	r0, r4
	bl	disk_write
.LVL1055:
	.loc 1 5609 7 view .LVU3014
	cmp	r0, #0
	bne	.L670
	.loc 1 5610 4 is_stmt 1 view .LVU3015
	.loc 1 5610 9 is_stmt 0 view .LVU3016
	add	r8, r8, r5
.LVL1056:
	.loc 1 5610 15 is_stmt 1 view .LVU3017
	.loc 1 5611 3 is_stmt 0 view .LVU3018
	subs	r6, r6, r5
.LVL1057:
	.loc 1 5611 3 view .LVU3019
	bne	.L638
	.loc 1 5615 2 is_stmt 1 view .LVU3020
	.loc 1 5618 3 view .LVU3021
	.loc 1 5618 6 is_stmt 0 view .LVU3022
	cmp	r10, #3
	beq	.L671
	.loc 1 5621 4 is_stmt 1 view .LVU3023
	.loc 1 5621 15 is_stmt 0 view .LVU3024
	ldr	r3, [sp, #40]
	.loc 1 5621 7 view .LVU3025
	cmp	r3, #65536
	bcs	.L672
	.loc 1 5624 5 is_stmt 1 view .LVU3026
	.loc 1 5624 9 is_stmt 0 view .LVU3027
	cmp	r10, #2
	beq	.L688
	mov	r8, #1
.LVL1058:
	.loc 1 5624 9 view .LVU3028
	b	.L639
.LVL1059:
.L684:
	.loc 1 5543 3 view .LVU3029
	movs	r1, #0
	b	.L625
.L626:
	.loc 1 5547 4 is_stmt 1 view .LVU3030
	ldr	r3, [sp, #4]
	add	r0, r3, #32
	bl	st_dword
.LVL1060:
	b	.L627
.L685:
	.loc 1 5554 4 view .LVU3031
	ldr	r1, .L693+4
	ldr	r3, [sp, #4]
	add	r0, r3, #67
	bl	st_dword
.LVL1061:
	.loc 1 5555 4 view .LVU3032
	mov	r1, r6
	ldr	r3, [sp, #4]
	add	r0, r3, #36
	bl	st_dword
.LVL1062:
	.loc 1 5556 4 view .LVU3033
	movs	r1, #2
	ldr	r3, [sp, #4]
	add	r0, r3, #44
	bl	st_dword
.LVL1063:
	.loc 1 5557 4 view .LVU3034
	movs	r1, #1
	ldr	r3, [sp, #4]
	add	r0, r3, #48
	bl	st_word
.LVL1064:
	.loc 1 5558 4 view .LVU3035
	movs	r1, #6
	ldr	r3, [sp, #4]
	add	r0, r3, #50
	bl	st_word
.LVL1065:
	.loc 1 5559 4 view .LVU3036
	.loc 1 5559 21 is_stmt 0 view .LVU3037
	movs	r3, #128
	ldr	r0, [sp, #4]
	strb	r3, [r0, #64]
	.loc 1 5560 4 is_stmt 1 view .LVU3038
	.loc 1 5560 22 is_stmt 0 view .LVU3039
	movs	r3, #41
	strb	r3, [r0, #66]
	.loc 1 5561 4 is_stmt 1 view .LVU3040
	movs	r2, #19
	ldr	r1, .L693+12
	adds	r0, r0, #71
	bl	mem_cpy
.LVL1066:
	b	.L629
.LVL1067:
.L686:
	.loc 1 5574 4 view .LVU3041
	movs	r3, #1
	adds	r2, r7, #6
	ldr	r9, [sp, #4]
	mov	r1, r9
	mov	r0, r4
	bl	disk_write
.LVL1068:
	.loc 1 5575 4 view .LVU3042
	mov	r2, #512
	movs	r1, #0
	mov	r0, r9
	bl	mem_set
.LVL1069:
	.loc 1 5576 4 view .LVU3043
	ldr	r1, .L693+16
	mov	r0, r9
	bl	st_dword
.LVL1070:
	.loc 1 5577 4 view .LVU3044
	ldr	r1, .L693+20
	str	r9, [sp, #4]
	add	r0, r9, #484
	bl	st_dword
.LVL1071:
	.loc 1 5578 4 view .LVU3045
	ldr	r2, [sp, #20]
	subs	r1, r2, #1
	ldr	r3, [sp, #4]
	add	r0, r3, #488
	bl	st_dword
.LVL1072:
	.loc 1 5579 4 view .LVU3046
	movs	r1, #2
	ldr	r3, [sp, #4]
	add	r0, r3, #492
	bl	st_dword
.LVL1073:
	.loc 1 5580 4 view .LVU3047
	movw	r1, #43605
	ldr	r0, [sp, #16]
	bl	st_word
.LVL1074:
	.loc 1 5581 4 view .LVU3048
	movs	r3, #1
	adds	r2, r7, #7
	ldr	r9, [sp, #4]
	mov	r1, r9
	mov	r0, r4
	bl	disk_write
.LVL1075:
	.loc 1 5582 4 view .LVU3049
	movs	r3, #1
	adds	r2, r7, r3
	mov	r1, r9
	mov	r0, r4
	bl	disk_write
.LVL1076:
	b	.L630
.LVL1077:
.L636:
	.loc 1 5589 4 view .LVU3050
	.loc 1 5589 7 is_stmt 0 view .LVU3051
	cmp	r10, #3
	beq	.L689
	.loc 1 5594 5 is_stmt 1 view .LVU3052
	cmp	r10, #1
	beq	.L690
	mvn	r1, #7
.L634:
	.loc 1 5594 5 is_stmt 0 discriminator 4 view .LVU3053
	ldr	r0, [sp, #4]
	bl	st_dword
.LVL1078:
.L633:
	.loc 1 5594 5 view .LVU3054
	mov	r8, r6
.L635:
.LVL1079:
	.loc 1 5597 4 is_stmt 1 view .LVU3055
	.loc 1 5598 5 view .LVU3056
	.loc 1 5598 7 is_stmt 0 view .LVU3057
	mov	r5, r8
	cmp	r8, r7
	it	cs
	movcs	r5, r7
.LVL1080:
	.loc 1 5599 5 is_stmt 1 view .LVU3058
	.loc 1 5599 9 is_stmt 0 view .LVU3059
	mov	r3, r5
	mov	r2, r9
	ldr	r1, [sp, #4]
	mov	r0, r4
	bl	disk_write
.LVL1081:
	.loc 1 5599 8 view .LVU3060
	cmp	r0, #0
	bne	.L669
	.loc 1 5600 5 is_stmt 1 view .LVU3061
	mov	r2, #512
	movs	r1, #0
	ldr	r0, [sp, #4]
	bl	mem_set
.LVL1082:
	.loc 1 5601 5 view .LVU3062
	.loc 1 5601 10 is_stmt 0 view .LVU3063
	add	r9, r9, r5
.LVL1083:
	.loc 1 5601 16 is_stmt 1 view .LVU3064
	.loc 1 5602 4 is_stmt 0 view .LVU3065
	subs	r8, r8, r5
.LVL1084:
	.loc 1 5602 4 view .LVU3066
	bne	.L635
	.loc 1 5588 28 discriminator 2 view .LVU3067
	add	fp, fp, #1
.LVL1085:
	.loc 1 5588 28 discriminator 2 view .LVU3068
	b	.L631
.LVL1086:
.L689:
	.loc 1 5590 5 is_stmt 1 view .LVU3069
	mvn	r1, #7
	ldr	r5, [sp, #4]
	mov	r0, r5
	bl	st_dword
.LVL1087:
	.loc 1 5591 5 view .LVU3070
	mov	r1, #-1
	adds	r0, r5, #4
	bl	st_dword
.LVL1088:
	.loc 1 5592 5 view .LVU3071
	mvn	r1, #-268435456
	add	r0, r5, #8
	bl	st_dword
.LVL1089:
	b	.L633
.L690:
	.loc 1 5594 5 is_stmt 0 view .LVU3072
	ldr	r1, .L693+24
	b	.L634
.LVL1090:
.L687:
	.loc 1 5606 35 view .LVU3073
	mov	r6, r8
.LVL1091:
	.loc 1 5606 35 view .LVU3074
	mov	r8, r9
	ldr	r9, [sp, #8]
.LVL1092:
	.loc 1 5606 35 view .LVU3075
	b	.L638
.LVL1093:
.L688:
	.loc 1 5624 9 view .LVU3076
	mov	r8, #4
.LVL1094:
	.loc 1 5624 9 view .LVU3077
	b	.L639
.LVL1095:
.L671:
	.loc 1 5619 8 view .LVU3078
	mov	r8, #12
.LVL1096:
.L639:
	.loc 1 5629 2 is_stmt 1 view .LVU3079
	.loc 1 5635 3 view .LVU3080
	.loc 1 5635 6 is_stmt 0 view .LVU3081
	ldr	r3, [sp, #12]
	cmp	r3, #0
	bne	.L640
	.loc 1 5637 4 is_stmt 1 view .LVU3082
	mov	r2, #512
	movs	r1, #0
	ldr	r6, [sp, #4]
.LVL1097:
	.loc 1 5637 4 is_stmt 0 view .LVU3083
	mov	r0, r6
	bl	mem_set
.LVL1098:
	.loc 1 5638 4 is_stmt 1 view .LVU3084
	movw	r1, #43605
	ldr	r0, [sp, #16]
	bl	st_word
.LVL1099:
	.loc 1 5639 4 view .LVU3085
	.loc 1 5640 4 view .LVU3086
	.loc 1 5640 18 is_stmt 0 view .LVU3087
	movs	r5, #0
.LVL1100:
	.loc 1 5640 18 view .LVU3088
	mov	r3, r6
	mov	r1, r6
	strb	r5, [r6, #446]
	.loc 1 5641 4 is_stmt 1 view .LVU3089
	.loc 1 5641 20 is_stmt 0 view .LVU3090
	movs	r6, #1
.LVL1101:
	.loc 1 5641 20 view .LVU3091
	strb	r6, [r3, #447]
	.loc 1 5642 4 is_stmt 1 view .LVU3092
	.loc 1 5642 19 is_stmt 0 view .LVU3093
	strb	r6, [r3, #448]
	.loc 1 5643 4 is_stmt 1 view .LVU3094
	.loc 1 5643 19 is_stmt 0 view .LVU3095
	strb	r5, [r3, #449]
	.loc 1 5644 4 is_stmt 1 view .LVU3096
	.loc 1 5644 20 is_stmt 0 view .LVU3097
	strb	r8, [r3, #450]
	.loc 1 5645 4 is_stmt 1 view .LVU3098
	.loc 1 5645 15 is_stmt 0 view .LVU3099
	ldr	r3, [sp, #40]
	add	r3, r3, r7
	.loc 1 5645 6 view .LVU3100
	movw	r2, #16065
	udiv	r3, r3, r2
.LVL1102:
	.loc 1 5646 4 is_stmt 1 view .LVU3101
	.loc 1 5646 20 is_stmt 0 view .LVU3102
	movs	r2, #254
	mov	r0, r1
	strb	r2, [r1, #451]
	.loc 1 5647 4 is_stmt 1 view .LVU3103
	.loc 1 5647 30 is_stmt 0 view .LVU3104
	lsrs	r2, r3, #2
	.loc 1 5647 21 view .LVU3105
	orr	r2, r2, #63
	.loc 1 5647 19 view .LVU3106
	strb	r2, [r1, #452]
	.loc 1 5648 4 is_stmt 1 view .LVU3107
	.loc 1 5648 19 is_stmt 0 view .LVU3108
	strb	r3, [r1, #453]
	.loc 1 5649 4 is_stmt 1 view .LVU3109
	mov	r1, r7
.LVL1103:
	.loc 1 5649 4 is_stmt 0 view .LVU3110
	mov	r7, r0
	add	r0, r0, #454
.LVL1104:
	.loc 1 5649 4 view .LVU3111
	bl	st_dword
.LVL1105:
	.loc 1 5650 4 is_stmt 1 view .LVU3112
	ldr	r1, [sp, #40]
	add	r0, r7, #458
	bl	st_dword
.LVL1106:
	.loc 1 5651 4 view .LVU3113
	.loc 1 5651 8 is_stmt 0 view .LVU3114
	mov	r3, r6
	mov	r2, r5
	mov	r1, r7
	mov	r0, r4
	bl	disk_write
.LVL1107:
	.loc 1 5651 7 view .LVU3115
	cmp	r0, #0
	bne	.L674
.LVL1108:
.L640:
	.loc 1 5655 2 is_stmt 1 view .LVU3116
	.loc 1 5655 6 is_stmt 0 view .LVU3117
	movs	r2, #0
	mov	r1, r2
	mov	r0, r4
	bl	disk_ioctl
.LVL1109:
	.loc 1 5655 5 view .LVU3118
	mov	r3, r0
	cbz	r0, .L597
	.loc 1 5655 55 view .LVU3119
	movs	r3, #1
	b	.L597
.LVL1110:
.L672:
	.loc 1 5622 9 view .LVU3120
	mov	r8, #6
.LVL1111:
	.loc 1 5622 9 view .LVU3121
	b	.L639
.L694:
	.align	2
.L693:
	.word	.LC1
	.word	1210122240
	.word	.LC3
	.word	.LC2
	.word	1096897106
	.word	1631679090
	.word	16777208
.LVL1112:
.L641:
	.loc 1 5238 22 view .LVU3122
	movs	r3, #11
	b	.L597
.LVL1113:
.L642:
	.loc 1 5245 32 view .LVU3123
	movs	r3, #3
	b	.L597
.L643:
	.loc 1 5246 33 view .LVU3124
	movs	r3, #10
.LVL1114:
.L597:
	.loc 1 5658 1 view .LVU3125
	mov	r0, r3
	add	sp, sp, #52
.LCFI99:
	@ sp needed
	pop	{r4, r5, r6, r7, r8, r9, r10, fp, pc}
.LVL1115:
.L644:
.LCFI100:
	.loc 1 5254 72 view .LVU3126
	movs	r3, #19
	b	.L597
.L645:
	.loc 1 5254 72 view .LVU3127
	movs	r3, #19
	b	.L597
.L646:
	movs	r3, #19
	b	.L597
.LVL1116:
.L647:
	.loc 1 5261 23 view .LVU3128
	movs	r3, #14
	b	.L597
.L648:
	.loc 1 5274 69 view .LVU3129
	movs	r3, #1
	b	.L597
.LVL1117:
.L650:
	.loc 1 5276 30 view .LVU3130
	movs	r3, #14
	b	.L597
.L651:
	.loc 1 5279 27 view .LVU3131
	movs	r3, #14
	b	.L597
.L652:
	.loc 1 5288 24 view .LVU3132
	movs	r3, #19
	b	.L597
.L655:
	.loc 1 5294 31 view .LVU3133
	movs	r3, #19
	b	.L597
.LVL1118:
.L657:
	.loc 1 5473 59 view .LVU3134
	movs	r3, #14
.LVL1119:
	.loc 1 5473 59 view .LVU3135
	b	.L597
.LVL1120:
.L659:
	.loc 1 5502 51 view .LVU3136
	movs	r3, #14
	b	.L597
.LVL1121:
.L660:
	.loc 1 5507 13 view .LVU3137
	movs	r3, #14
.LVL1122:
	.loc 1 5507 13 view .LVU3138
	b	.L597
.L663:
	.loc 1 5519 13 view .LVU3139
	movs	r3, #14
	b	.L597
.LVL1123:
.L664:
	.loc 1 5523 13 view .LVU3140
	movs	r3, #14
.LVL1124:
	.loc 1 5523 13 view .LVU3141
	b	.L597
.LVL1125:
.L665:
	.loc 1 5526 54 view .LVU3142
	movs	r3, #14
	b	.L597
.LVL1126:
.L667:
	.loc 1 5570 57 view .LVU3143
	movs	r3, #1
	b	.L597
.LVL1127:
.L669:
	.loc 1 5599 64 view .LVU3144
	movs	r3, #1
	b	.L597
.LVL1128:
.L670:
	.loc 1 5609 63 view .LVU3145
	movs	r3, #1
	b	.L597
.LVL1129:
.L674:
	.loc 1 5651 54 view .LVU3146
	movs	r3, #1
	b	.L597
.LFE48:
	.size	f_mkfs, .-f_mkfs
	.section	.bss.FatFs,"aw",%nobits
	.align	2
	.set	.LANCHOR0,. + 0
	.type	FatFs, %object
	.size	FatFs, 4
FatFs:
	.space	4
	.section	.bss.Fsid,"aw",%nobits
	.align	1
	.set	.LANCHOR1,. + 0
	.type	Fsid, %object
	.size	Fsid, 2
Fsid:
	.space	2
	.section	.rodata.create_name.str1.4,"aMS",%progbits,1
	.align	2
.LC0:
	.ascii	"\"*+,:;<=>?[]|\177\000"
	.section	.rodata.cst.5644,"a"
	.align	2
	.set	.LANCHOR3,. + 0
	.type	cst.5644, %object
	.size	cst.5644, 14
cst.5644:
	.short	1
	.short	4
	.short	16
	.short	64
	.short	256
	.short	512
	.short	0
	.section	.rodata.cst32.5645,"a"
	.align	2
	.set	.LANCHOR2,. + 0
	.type	cst32.5645, %object
	.size	cst32.5645, 14
cst32.5645:
	.short	1
	.short	2
	.short	4
	.short	8
	.short	16
	.short	32
	.short	0
	.section	.rodata.f_mkfs.str1.4,"aMS",%progbits,1
	.align	2
.LC1:
	.ascii	"\353\376\220MSDOS5.0\000"
.LC2:
	.ascii	"NO NAME    FAT32   \000"
.LC3:
	.ascii	"NO NAME    FAT     \000"
	.section	.debug_frame,"",%progbits
.Lframe0:
	.4byte	.LECIE0-.LSCIE0
.LSCIE0:
	.4byte	0xffffffff
	.byte	0x3
	.ascii	"\000"
	.uleb128 0x1
	.sleb128 -4
	.uleb128 0xe
	.byte	0xc
	.uleb128 0xd
	.uleb128 0
	.align	2
.LECIE0:
.LSFDE0:
	.4byte	.LEFDE0-.LASFDE0
.LASFDE0:
	.4byte	.Lframe0
	.4byte	.LFB0
	.4byte	.LFE0-.LFB0
	.align	2
.LEFDE0:
.LSFDE2:
	.4byte	.LEFDE2-.LASFDE2
.LASFDE2:
	.4byte	.Lframe0
	.4byte	.LFB1
	.4byte	.LFE1-.LFB1
	.align	2
.LEFDE2:
.LSFDE4:
	.4byte	.LEFDE4-.LASFDE4
.LASFDE4:
	.4byte	.Lframe0
	.4byte	.LFB2
	.4byte	.LFE2-.LFB2
	.align	2
.LEFDE4:
.LSFDE6:
	.4byte	.LEFDE6-.LASFDE6
.LASFDE6:
	.4byte	.Lframe0
	.4byte	.LFB3
	.4byte	.LFE3-.LFB3
	.align	2
.LEFDE6:
.LSFDE8:
	.4byte	.LEFDE8-.LASFDE8
.LASFDE8:
	.4byte	.Lframe0
	.4byte	.LFB4
	.4byte	.LFE4-.LFB4
	.align	2
.LEFDE8:
.LSFDE10:
	.4byte	.LEFDE10-.LASFDE10
.LASFDE10:
	.4byte	.Lframe0
	.4byte	.LFB5
	.4byte	.LFE5-.LFB5
	.align	2
.LEFDE10:
.LSFDE12:
	.4byte	.LEFDE12-.LASFDE12
.LASFDE12:
	.4byte	.Lframe0
	.4byte	.LFB6
	.4byte	.LFE6-.LFB6
	.byte	0x4
	.4byte	.LCFI0-.LFB6
	.byte	0xe
	.uleb128 0x4
	.byte	0x84
	.uleb128 0x1
	.byte	0x4
	.4byte	.LCFI1-.LCFI0
	.byte	0xc4
	.byte	0xe
	.uleb128 0
	.align	2
.LEFDE12:
.LSFDE14:
	.4byte	.LEFDE14-.LASFDE14
.LASFDE14:
	.4byte	.Lframe0
	.4byte	.LFB7
	.4byte	.LFE7-.LFB7
	.align	2
.LEFDE14:
.LSFDE16:
	.4byte	.LEFDE16-.LASFDE16
.LASFDE16:
	.4byte	.Lframe0
	.4byte	.LFB11
	.4byte	.LFE11-.LFB11
	.align	2
.LEFDE16:
.LSFDE18:
	.4byte	.LEFDE18-.LASFDE18
.LASFDE18:
	.4byte	.Lframe0
	.4byte	.LFB19
	.4byte	.LFE19-.LFB19
	.byte	0x4
	.4byte	.LCFI2-.LFB19
	.byte	0xe
	.uleb128 0x10
	.byte	0x84
	.uleb128 0x4
	.byte	0x85
	.uleb128 0x3
	.byte	0x86
	.uleb128 0x2
	.byte	0x8e
	.uleb128 0x1
	.align	2
.LEFDE18:
.LSFDE20:
	.4byte	.LEFDE20-.LASFDE20
.LASFDE20:
	.4byte	.Lframe0
	.4byte	.LFB20
	.4byte	.LFE20-.LFB20
	.byte	0x4
	.4byte	.LCFI3-.LFB20
	.byte	0xe
	.uleb128 0x10
	.byte	0x84
	.uleb128 0x4
	.byte	0x85
	.uleb128 0x3
	.byte	0x86
	.uleb128 0x2
	.byte	0x8e
	.uleb128 0x1
	.align	2
.LEFDE20:
.LSFDE22:
	.4byte	.LEFDE22-.LASFDE22
.LASFDE22:
	.4byte	.Lframe0
	.4byte	.LFB25
	.4byte	.LFE25-.LFB25
	.byte	0x4
	.4byte	.LCFI4-.LFB25
	.byte	0xe
	.uleb128 0x10
	.byte	0x84
	.uleb128 0x4
	.byte	0x85
	.uleb128 0x3
	.byte	0x86
	.uleb128 0x2
	.byte	0x8e
	.uleb128 0x1
	.byte	0x4
	.4byte	.LCFI5-.LCFI4
	.byte	0xe
	.uleb128 0
	.byte	0xc4
	.byte	0xc5
	.byte	0xc6
	.byte	0xce
	.align	2
.LEFDE22:
.LSFDE24:
	.4byte	.LEFDE24-.LASFDE24
.LASFDE24:
	.4byte	.Lframe0
	.4byte	.LFB26
	.4byte	.LFE26-.LFB26
	.byte	0x4
	.4byte	.LCFI6-.LFB26
	.byte	0xe
	.uleb128 0x28
	.byte	0x83
	.uleb128 0xa
	.byte	0x84
	.uleb128 0x9
	.byte	0x85
	.uleb128 0x8
	.byte	0x86
	.uleb128 0x7
	.byte	0x87
	.uleb128 0x6
	.byte	0x88
	.uleb128 0x5
	.byte	0x89
	.uleb128 0x4
	.byte	0x8a
	.uleb128 0x3
	.byte	0x8b
	.uleb128 0x2
	.byte	0x8e
	.uleb128 0x1
	.align	2
.LEFDE24:
.LSFDE26:
	.4byte	.LEFDE26-.LASFDE26
.LASFDE26:
	.4byte	.Lframe0
	.4byte	.LFB28
	.4byte	.LFE28-.LFB28
	.byte	0x4
	.4byte	.LCFI7-.LFB28
	.byte	0xe
	.uleb128 0x4
	.byte	0x84
	.uleb128 0x1
	.byte	0x4
	.4byte	.LCFI8-.LCFI7
	.byte	0xa
	.byte	0xc4
	.byte	0xe
	.uleb128 0
	.byte	0x4
	.4byte	.LCFI9-.LCFI8
	.byte	0xb
	.align	2
.LEFDE26:
.LSFDE28:
	.4byte	.LEFDE28-.LASFDE28
.LASFDE28:
	.4byte	.Lframe0
	.4byte	.LFB31
	.4byte	.LFE31-.LFB31
	.byte	0x4
	.4byte	.LCFI10-.LFB31
	.byte	0xe
	.uleb128 0x10
	.byte	0x83
	.uleb128 0x4
	.byte	0x84
	.uleb128 0x3
	.byte	0x85
	.uleb128 0x2
	.byte	0x8e
	.uleb128 0x1
	.align	2
.LEFDE28:
.LSFDE30:
	.4byte	.LEFDE30-.LASFDE30
.LASFDE30:
	.4byte	.Lframe0
	.4byte	.LFB8
	.4byte	.LFE8-.LFB8
	.byte	0x4
	.4byte	.LCFI11-.LFB8
	.byte	0xe
	.uleb128 0x18
	.byte	0x84
	.uleb128 0x6
	.byte	0x85
	.uleb128 0x5
	.byte	0x86
	.uleb128 0x4
	.byte	0x87
	.uleb128 0x3
	.byte	0x88
	.uleb128 0x2
	.byte	0x8e
	.uleb128 0x1
	.align	2
.LEFDE30:
.LSFDE32:
	.4byte	.LEFDE32-.LASFDE32
.LASFDE32:
	.4byte	.Lframe0
	.4byte	.LFB9
	.4byte	.LFE9-.LFB9
	.byte	0x4
	.4byte	.LCFI12-.LFB9
	.byte	0xe
	.uleb128 0x10
	.byte	0x84
	.uleb128 0x4
	.byte	0x85
	.uleb128 0x3
	.byte	0x86
	.uleb128 0x2
	.byte	0x8e
	.uleb128 0x1
	.align	2
.LEFDE32:
.LSFDE34:
	.4byte	.LEFDE34-.LASFDE34
.LASFDE34:
	.4byte	.Lframe0
	.4byte	.LFB29
	.4byte	.LFE29-.LFB29
	.byte	0x4
	.4byte	.LCFI13-.LFB29
	.byte	0xe
	.uleb128 0x10
	.byte	0x83
	.uleb128 0x4
	.byte	0x84
	.uleb128 0x3
	.byte	0x85
	.uleb128 0x2
	.byte	0x8e
	.uleb128 0x1
	.align	2
.LEFDE34:
.LSFDE36:
	.4byte	.LEFDE36-.LASFDE36
.LASFDE36:
	.4byte	.Lframe0
	.4byte	.LFB30
	.4byte	.LFE30-.LFB30
	.byte	0x4
	.4byte	.LCFI14-.LFB30
	.byte	0xe
	.uleb128 0x24
	.byte	0x84
	.uleb128 0x9
	.byte	0x85
	.uleb128 0x8
	.byte	0x86
	.uleb128 0x7
	.byte	0x87
	.uleb128 0x6
	.byte	0x88
	.uleb128 0x5
	.byte	0x89
	.uleb128 0x4
	.byte	0x8a
	.uleb128 0x3
	.byte	0x8b
	.uleb128 0x2
	.byte	0x8e
	.uleb128 0x1
	.byte	0x4
	.4byte	.LCFI15-.LCFI14
	.byte	0xe
	.uleb128 0x38
	.byte	0x4
	.4byte	.LCFI16-.LCFI15
	.byte	0xa
	.byte	0xe
	.uleb128 0x24
	.byte	0x4
	.4byte	.LCFI17-.LCFI16
	.byte	0xb
	.align	2
.LEFDE36:
.LSFDE38:
	.4byte	.LEFDE38-.LASFDE38
.LASFDE38:
	.4byte	.Lframe0
	.4byte	.LFB13
	.4byte	.LFE13-.LFB13
	.byte	0x4
	.4byte	.LCFI18-.LFB13
	.byte	0xe
	.uleb128 0x20
	.byte	0x84
	.uleb128 0x8
	.byte	0x85
	.uleb128 0x7
	.byte	0x86
	.uleb128 0x6
	.byte	0x87
	.uleb128 0x5
	.byte	0x88
	.uleb128 0x4
	.byte	0x89
	.uleb128 0x3
	.byte	0x8a
	.uleb128 0x2
	.byte	0x8e
	.uleb128 0x1
	.align	2
.LEFDE38:
.LSFDE40:
	.4byte	.LEFDE40-.LASFDE40
.LASFDE40:
	.4byte	.Lframe0
	.4byte	.LFB12
	.4byte	.LFE12-.LFB12
	.byte	0x4
	.4byte	.LCFI19-.LFB12
	.byte	0xe
	.uleb128 0x18
	.byte	0x83
	.uleb128 0x6
	.byte	0x84
	.uleb128 0x5
	.byte	0x85
	.uleb128 0x4
	.byte	0x86
	.uleb128 0x3
	.byte	0x87
	.uleb128 0x2
	.byte	0x8e
	.uleb128 0x1
	.align	2
.LEFDE40:
.LSFDE42:
	.4byte	.LEFDE42-.LASFDE42
.LASFDE42:
	.4byte	.Lframe0
	.4byte	.LFB16
	.4byte	.LFE16-.LFB16
	.byte	0x4
	.4byte	.LCFI20-.LFB16
	.byte	0xe
	.uleb128 0x18
	.byte	0x84
	.uleb128 0x6
	.byte	0x85
	.uleb128 0x5
	.byte	0x86
	.uleb128 0x4
	.byte	0x87
	.uleb128 0x3
	.byte	0x88
	.uleb128 0x2
	.byte	0x8e
	.uleb128 0x1
	.align	2
.LEFDE42:
.LSFDE44:
	.4byte	.LEFDE44-.LASFDE44
.LASFDE44:
	.4byte	.Lframe0
	.4byte	.LFB15
	.4byte	.LFE15-.LFB15
	.byte	0x4
	.4byte	.LCFI21-.LFB15
	.byte	0xe
	.uleb128 0x18
	.byte	0x84
	.uleb128 0x6
	.byte	0x85
	.uleb128 0x5
	.byte	0x86
	.uleb128 0x4
	.byte	0x87
	.uleb128 0x3
	.byte	0x88
	.uleb128 0x2
	.byte	0x8e
	.uleb128 0x1
	.align	2
.LEFDE44:
.LSFDE46:
	.4byte	.LEFDE46-.LASFDE46
.LASFDE46:
	.4byte	.Lframe0
	.4byte	.LFB14
	.4byte	.LFE14-.LFB14
	.byte	0x4
	.4byte	.LCFI22-.LFB14
	.byte	0xe
	.uleb128 0x18
	.byte	0x83
	.uleb128 0x6
	.byte	0x84
	.uleb128 0x5
	.byte	0x85
	.uleb128 0x4
	.byte	0x86
	.uleb128 0x3
	.byte	0x87
	.uleb128 0x2
	.byte	0x8e
	.uleb128 0x1
	.align	2
.LEFDE46:
.LSFDE48:
	.4byte	.LEFDE48-.LASFDE48
.LASFDE48:
	.4byte	.Lframe0
	.4byte	.LFB24
	.4byte	.LFE24-.LFB24
	.byte	0x4
	.4byte	.LCFI23-.LFB24
	.byte	0xe
	.uleb128 0x10
	.byte	0x83
	.uleb128 0x4
	.byte	0x84
	.uleb128 0x3
	.byte	0x85
	.uleb128 0x2
	.byte	0x8e
	.uleb128 0x1
	.align	2
.LEFDE48:
.LSFDE50:
	.4byte	.LEFDE50-.LASFDE50
.LASFDE50:
	.4byte	.Lframe0
	.4byte	.LFB17
	.4byte	.LFE17-.LFB17
	.byte	0x4
	.4byte	.LCFI24-.LFB17
	.byte	0xe
	.uleb128 0x20
	.byte	0x84
	.uleb128 0x8
	.byte	0x85
	.uleb128 0x7
	.byte	0x86
	.uleb128 0x6
	.byte	0x87
	.uleb128 0x5
	.byte	0x88
	.uleb128 0x4
	.byte	0x89
	.uleb128 0x3
	.byte	0x8a
	.uleb128 0x2
	.byte	0x8e
	.uleb128 0x1
	.align	2
.LEFDE50:
.LSFDE52:
	.4byte	.LEFDE52-.LASFDE52
.LASFDE52:
	.4byte	.Lframe0
	.4byte	.LFB22
	.4byte	.LFE22-.LFB22
	.byte	0x4
	.4byte	.LCFI25-.LFB22
	.byte	0xe
	.uleb128 0x10
	.byte	0x84
	.uleb128 0x4
	.byte	0x85
	.uleb128 0x3
	.byte	0x86
	.uleb128 0x2
	.byte	0x8e
	.uleb128 0x1
	.align	2
.LEFDE52:
.LSFDE54:
	.4byte	.LEFDE54-.LASFDE54
.LASFDE54:
	.4byte	.Lframe0
	.4byte	.LFB27
	.4byte	.LFE27-.LFB27
	.byte	0x4
	.4byte	.LCFI26-.LFB27
	.byte	0xe
	.uleb128 0xc
	.byte	0x84
	.uleb128 0x3
	.byte	0x85
	.uleb128 0x2
	.byte	0x8e
	.uleb128 0x1
	.byte	0x4
	.4byte	.LCFI27-.LCFI26
	.byte	0xe
	.uleb128 0x18
	.byte	0x4
	.4byte	.LCFI28-.LCFI27
	.byte	0xa
	.byte	0xe
	.uleb128 0xc
	.byte	0x4
	.4byte	.LCFI29-.LCFI28
	.byte	0xb
	.align	2
.LEFDE54:
.LSFDE56:
	.4byte	.LEFDE56-.LASFDE56
.LASFDE56:
	.4byte	.Lframe0
	.4byte	.LFB18
	.4byte	.LFE18-.LFB18
	.byte	0x4
	.4byte	.LCFI30-.LFB18
	.byte	0xe
	.uleb128 0x18
	.byte	0x83
	.uleb128 0x6
	.byte	0x84
	.uleb128 0x5
	.byte	0x85
	.uleb128 0x4
	.byte	0x86
	.uleb128 0x3
	.byte	0x87
	.uleb128 0x2
	.byte	0x8e
	.uleb128 0x1
	.align	2
.LEFDE56:
.LSFDE58:
	.4byte	.LEFDE58-.LASFDE58
.LASFDE58:
	.4byte	.Lframe0
	.4byte	.LFB23
	.4byte	.LFE23-.LFB23
	.byte	0x4
	.4byte	.LCFI31-.LFB23
	.byte	0xe
	.uleb128 0x10
	.byte	0x84
	.uleb128 0x4
	.byte	0x85
	.uleb128 0x3
	.byte	0x86
	.uleb128 0x2
	.byte	0x8e
	.uleb128 0x1
	.align	2
.LEFDE58:
.LSFDE60:
	.4byte	.LEFDE60-.LASFDE60
.LASFDE60:
	.4byte	.Lframe0
	.4byte	.LFB21
	.4byte	.LFE21-.LFB21
	.byte	0x4
	.4byte	.LCFI32-.LFB21
	.byte	0xe
	.uleb128 0x18
	.byte	0x83
	.uleb128 0x6
	.byte	0x84
	.uleb128 0x5
	.byte	0x85
	.uleb128 0x4
	.byte	0x86
	.uleb128 0x3
	.byte	0x87
	.uleb128 0x2
	.byte	0x8e
	.uleb128 0x1
	.align	2
.LEFDE60:
.LSFDE62:
	.4byte	.LEFDE62-.LASFDE62
.LASFDE62:
	.4byte	.Lframe0
	.4byte	.LFB10
	.4byte	.LFE10-.LFB10
	.byte	0x4
	.4byte	.LCFI33-.LFB10
	.byte	0xe
	.uleb128 0x10
	.byte	0x84
	.uleb128 0x4
	.byte	0x85
	.uleb128 0x3
	.byte	0x86
	.uleb128 0x2
	.byte	0x8e
	.uleb128 0x1
	.align	2
.LEFDE62:
.LSFDE64:
	.4byte	.LEFDE64-.LASFDE64
.LASFDE64:
	.4byte	.Lframe0
	.4byte	.LFB32
	.4byte	.LFE32-.LFB32
	.byte	0x4
	.4byte	.LCFI34-.LFB32
	.byte	0xe
	.uleb128 0x8
	.byte	0x84
	.uleb128 0x2
	.byte	0x8e
	.uleb128 0x1
	.byte	0x4
	.4byte	.LCFI35-.LCFI34
	.byte	0xe
	.uleb128 0x18
	.byte	0x4
	.4byte	.LCFI36-.LCFI35
	.byte	0xa
	.byte	0xe
	.uleb128 0x8
	.byte	0x4
	.4byte	.LCFI37-.LCFI36
	.byte	0xb
	.align	2
.LEFDE64:
.LSFDE66:
	.4byte	.LEFDE66-.LASFDE66
.LASFDE66:
	.4byte	.Lframe0
	.4byte	.LFB33
	.4byte	.LFE33-.LFB33
	.byte	0x4
	.4byte	.LCFI38-.LFB33
	.byte	0xe
	.uleb128 0x1c
	.byte	0x84
	.uleb128 0x7
	.byte	0x85
	.uleb128 0x6
	.byte	0x86
	.uleb128 0x5
	.byte	0x87
	.uleb128 0x4
	.byte	0x88
	.uleb128 0x3
	.byte	0x89
	.uleb128 0x2
	.byte	0x8e
	.uleb128 0x1
	.byte	0x4
	.4byte	.LCFI39-.LCFI38
	.byte	0xe
	.uleb128 0x58
	.byte	0x4
	.4byte	.LCFI40-.LCFI39
	.byte	0xa
	.byte	0xe
	.uleb128 0x1c
	.byte	0x4
	.4byte	.LCFI41-.LCFI40
	.byte	0xb
	.align	2
.LEFDE66:
.LSFDE68:
	.4byte	.LEFDE68-.LASFDE68
.LASFDE68:
	.4byte	.Lframe0
	.4byte	.LFB34
	.4byte	.LFE34-.LFB34
	.byte	0x4
	.4byte	.LCFI42-.LFB34
	.byte	0xe
	.uleb128 0x24
	.byte	0x84
	.uleb128 0x9
	.byte	0x85
	.uleb128 0x8
	.byte	0x86
	.uleb128 0x7
	.byte	0x87
	.uleb128 0x6
	.byte	0x88
	.uleb128 0x5
	.byte	0x89
	.uleb128 0x4
	.byte	0x8a
	.uleb128 0x3
	.byte	0x8b
	.uleb128 0x2
	.byte	0x8e
	.uleb128 0x1
	.byte	0x4
	.4byte	.LCFI43-.LCFI42
	.byte	0xe
	.uleb128 0x40
	.byte	0x4
	.4byte	.LCFI44-.LCFI43
	.byte	0xa
	.byte	0xe
	.uleb128 0x24
	.byte	0x4
	.4byte	.LCFI45-.LCFI44
	.byte	0xb
	.align	2
.LEFDE68:
.LSFDE70:
	.4byte	.LEFDE70-.LASFDE70
.LASFDE70:
	.4byte	.Lframe0
	.4byte	.LFB35
	.4byte	.LFE35-.LFB35
	.byte	0x4
	.4byte	.LCFI46-.LFB35
	.byte	0xe
	.uleb128 0x24
	.byte	0x84
	.uleb128 0x9
	.byte	0x85
	.uleb128 0x8
	.byte	0x86
	.uleb128 0x7
	.byte	0x87
	.uleb128 0x6
	.byte	0x88
	.uleb128 0x5
	.byte	0x89
	.uleb128 0x4
	.byte	0x8a
	.uleb128 0x3
	.byte	0x8b
	.uleb128 0x2
	.byte	0x8e
	.uleb128 0x1
	.byte	0x4
	.4byte	.LCFI47-.LCFI46
	.byte	0xe
	.uleb128 0x38
	.byte	0x4
	.4byte	.LCFI48-.LCFI47
	.byte	0xa
	.byte	0xe
	.uleb128 0x24
	.byte	0x4
	.4byte	.LCFI49-.LCFI48
	.byte	0xb
	.align	2
.LEFDE70:
.LSFDE72:
	.4byte	.LEFDE72-.LASFDE72
.LASFDE72:
	.4byte	.Lframe0
	.4byte	.LFB36
	.4byte	.LFE36-.LFB36
	.byte	0x4
	.4byte	.LCFI50-.LFB36
	.byte	0xe
	.uleb128 0xc
	.byte	0x84
	.uleb128 0x3
	.byte	0x85
	.uleb128 0x2
	.byte	0x8e
	.uleb128 0x1
	.byte	0x4
	.4byte	.LCFI51-.LCFI50
	.byte	0xe
	.uleb128 0x18
	.byte	0x4
	.4byte	.LCFI52-.LCFI51
	.byte	0xa
	.byte	0xe
	.uleb128 0xc
	.byte	0x4
	.4byte	.LCFI53-.LCFI52
	.byte	0xb
	.align	2
.LEFDE72:
.LSFDE74:
	.4byte	.LEFDE74-.LASFDE74
.LASFDE74:
	.4byte	.Lframe0
	.4byte	.LFB37
	.4byte	.LFE37-.LFB37
	.byte	0x4
	.4byte	.LCFI54-.LFB37
	.byte	0xe
	.uleb128 0x8
	.byte	0x84
	.uleb128 0x2
	.byte	0x8e
	.uleb128 0x1
	.byte	0x4
	.4byte	.LCFI55-.LCFI54
	.byte	0xe
	.uleb128 0x10
	.byte	0x4
	.4byte	.LCFI56-.LCFI55
	.byte	0xa
	.byte	0xe
	.uleb128 0x8
	.byte	0x4
	.4byte	.LCFI57-.LCFI56
	.byte	0xb
	.align	2
.LEFDE74:
.LSFDE76:
	.4byte	.LEFDE76-.LASFDE76
.LASFDE76:
	.4byte	.Lframe0
	.4byte	.LFB38
	.4byte	.LFE38-.LFB38
	.byte	0x4
	.4byte	.LCFI58-.LFB38
	.byte	0xe
	.uleb128 0x1c
	.byte	0x84
	.uleb128 0x7
	.byte	0x85
	.uleb128 0x6
	.byte	0x86
	.uleb128 0x5
	.byte	0x87
	.uleb128 0x4
	.byte	0x88
	.uleb128 0x3
	.byte	0x89
	.uleb128 0x2
	.byte	0x8e
	.uleb128 0x1
	.byte	0x4
	.4byte	.LCFI59-.LCFI58
	.byte	0xe
	.uleb128 0x28
	.byte	0x4
	.4byte	.LCFI60-.LCFI59
	.byte	0xa
	.byte	0xe
	.uleb128 0x1c
	.byte	0x4
	.4byte	.LCFI61-.LCFI60
	.byte	0xb
	.align	2
.LEFDE76:
.LSFDE78:
	.4byte	.LEFDE78-.LASFDE78
.LASFDE78:
	.4byte	.Lframe0
	.4byte	.LFB39
	.4byte	.LFE39-.LFB39
	.byte	0x4
	.4byte	.LCFI62-.LFB39
	.byte	0xe
	.uleb128 0x8
	.byte	0x84
	.uleb128 0x2
	.byte	0x8e
	.uleb128 0x1
	.byte	0x4
	.4byte	.LCFI63-.LCFI62
	.byte	0xe
	.uleb128 0x18
	.byte	0x4
	.4byte	.LCFI64-.LCFI63
	.byte	0xa
	.byte	0xe
	.uleb128 0x8
	.byte	0x4
	.4byte	.LCFI65-.LCFI64
	.byte	0xb
	.align	2
.LEFDE78:
.LSFDE80:
	.4byte	.LEFDE80-.LASFDE80
.LASFDE80:
	.4byte	.Lframe0
	.4byte	.LFB40
	.4byte	.LFE40-.LFB40
	.byte	0x4
	.4byte	.LCFI66-.LFB40
	.byte	0xe
	.uleb128 0x8
	.byte	0x84
	.uleb128 0x2
	.byte	0x8e
	.uleb128 0x1
	.byte	0x4
	.4byte	.LCFI67-.LCFI66
	.byte	0xe
	.uleb128 0x10
	.byte	0x4
	.4byte	.LCFI68-.LCFI67
	.byte	0xe
	.uleb128 0x8
	.align	2
.LEFDE80:
.LSFDE82:
	.4byte	.LEFDE82-.LASFDE82
.LASFDE82:
	.4byte	.Lframe0
	.4byte	.LFB41
	.4byte	.LFE41-.LFB41
	.byte	0x4
	.4byte	.LCFI69-.LFB41
	.byte	0xe
	.uleb128 0x10
	.byte	0x84
	.uleb128 0x4
	.byte	0x85
	.uleb128 0x3
	.byte	0x86
	.uleb128 0x2
	.byte	0x8e
	.uleb128 0x1
	.byte	0x4
	.4byte	.LCFI70-.LCFI69
	.byte	0xe
	.uleb128 0x18
	.byte	0x4
	.4byte	.LCFI71-.LCFI70
	.byte	0xa
	.byte	0xe
	.uleb128 0x10
	.byte	0x4
	.4byte	.LCFI72-.LCFI71
	.byte	0xb
	.align	2
.LEFDE82:
.LSFDE84:
	.4byte	.LEFDE84-.LASFDE84
.LASFDE84:
	.4byte	.Lframe0
	.4byte	.LFB42
	.4byte	.LFE42-.LFB42
	.byte	0x4
	.4byte	.LCFI73-.LFB42
	.byte	0xe
	.uleb128 0xc
	.byte	0x84
	.uleb128 0x3
	.byte	0x85
	.uleb128 0x2
	.byte	0x8e
	.uleb128 0x1
	.byte	0x4
	.4byte	.LCFI74-.LCFI73
	.byte	0xe
	.uleb128 0x48
	.byte	0x4
	.4byte	.LCFI75-.LCFI74
	.byte	0xa
	.byte	0xe
	.uleb128 0xc
	.byte	0x4
	.4byte	.LCFI76-.LCFI75
	.byte	0xb
	.align	2
.LEFDE84:
.LSFDE86:
	.4byte	.LEFDE86-.LASFDE86
.LASFDE86:
	.4byte	.Lframe0
	.4byte	.LFB43
	.4byte	.LFE43-.LFB43
	.byte	0x4
	.4byte	.LCFI77-.LFB43
	.byte	0xe
	.uleb128 0x20
	.byte	0x84
	.uleb128 0x8
	.byte	0x85
	.uleb128 0x7
	.byte	0x86
	.uleb128 0x6
	.byte	0x87
	.uleb128 0x5
	.byte	0x88
	.uleb128 0x4
	.byte	0x89
	.uleb128 0x3
	.byte	0x8a
	.uleb128 0x2
	.byte	0x8e
	.uleb128 0x1
	.byte	0x4
	.4byte	.LCFI78-.LCFI77
	.byte	0xe
	.uleb128 0x40
	.byte	0x4
	.4byte	.LCFI79-.LCFI78
	.byte	0xa
	.byte	0xe
	.uleb128 0x20
	.byte	0x4
	.4byte	.LCFI80-.LCFI79
	.byte	0xb
	.align	2
.LEFDE86:
.LSFDE88:
	.4byte	.LEFDE88-.LASFDE88
.LASFDE88:
	.4byte	.Lframe0
	.4byte	.LFB44
	.4byte	.LFE44-.LFB44
	.byte	0x4
	.4byte	.LCFI81-.LFB44
	.byte	0xe
	.uleb128 0xc
	.byte	0x84
	.uleb128 0x3
	.byte	0x85
	.uleb128 0x2
	.byte	0x8e
	.uleb128 0x1
	.byte	0x4
	.4byte	.LCFI82-.LCFI81
	.byte	0xe
	.uleb128 0x18
	.byte	0x4
	.4byte	.LCFI83-.LCFI82
	.byte	0xa
	.byte	0xe
	.uleb128 0xc
	.byte	0x4
	.4byte	.LCFI84-.LCFI83
	.byte	0xb
	.align	2
.LEFDE88:
.LSFDE90:
	.4byte	.LEFDE90-.LASFDE90
.LASFDE90:
	.4byte	.Lframe0
	.4byte	.LFB45
	.4byte	.LFE45-.LFB45
	.byte	0x4
	.4byte	.LCFI85-.LFB45
	.byte	0xe
	.uleb128 0x14
	.byte	0x84
	.uleb128 0x5
	.byte	0x85
	.uleb128 0x4
	.byte	0x86
	.uleb128 0x3
	.byte	0x87
	.uleb128 0x2
	.byte	0x8e
	.uleb128 0x1
	.byte	0x4
	.4byte	.LCFI86-.LCFI85
	.byte	0xe
	.uleb128 0x80
	.byte	0x4
	.4byte	.LCFI87-.LCFI86
	.byte	0xa
	.byte	0xe
	.uleb128 0x14
	.byte	0x4
	.4byte	.LCFI88-.LCFI87
	.byte	0xb
	.align	2
.LEFDE90:
.LSFDE92:
	.4byte	.LEFDE92-.LASFDE92
.LASFDE92:
	.4byte	.Lframe0
	.4byte	.LFB46
	.4byte	.LFE46-.LFB46
	.byte	0x4
	.4byte	.LCFI89-.LFB46
	.byte	0xe
	.uleb128 0x20
	.byte	0x84
	.uleb128 0x8
	.byte	0x85
	.uleb128 0x7
	.byte	0x86
	.uleb128 0x6
	.byte	0x87
	.uleb128 0x5
	.byte	0x88
	.uleb128 0x4
	.byte	0x89
	.uleb128 0x3
	.byte	0x8a
	.uleb128 0x2
	.byte	0x8e
	.uleb128 0x1
	.byte	0x4
	.4byte	.LCFI90-.LCFI89
	.byte	0xe
	.uleb128 0x58
	.byte	0x4
	.4byte	.LCFI91-.LCFI90
	.byte	0xa
	.byte	0xe
	.uleb128 0x20
	.byte	0x4
	.4byte	.LCFI92-.LCFI91
	.byte	0xb
	.align	2
.LEFDE92:
.LSFDE94:
	.4byte	.LEFDE94-.LASFDE94
.LASFDE94:
	.4byte	.Lframe0
	.4byte	.LFB47
	.4byte	.LFE47-.LFB47
	.byte	0x4
	.4byte	.LCFI93-.LFB47
	.byte	0xe
	.uleb128 0xc
	.byte	0x84
	.uleb128 0x3
	.byte	0x85
	.uleb128 0x2
	.byte	0x8e
	.uleb128 0x1
	.byte	0x4
	.4byte	.LCFI94-.LCFI93
	.byte	0xe
	.uleb128 0x90
	.byte	0x4
	.4byte	.LCFI95-.LCFI94
	.byte	0xa
	.byte	0xe
	.uleb128 0xc
	.byte	0x4
	.4byte	.LCFI96-.LCFI95
	.byte	0xb
	.align	2
.LEFDE94:
.LSFDE96:
	.4byte	.LEFDE96-.LASFDE96
.LASFDE96:
	.4byte	.Lframe0
	.4byte	.LFB48
	.4byte	.LFE48-.LFB48
	.byte	0x4
	.4byte	.LCFI97-.LFB48
	.byte	0xe
	.uleb128 0x24
	.byte	0x84
	.uleb128 0x9
	.byte	0x85
	.uleb128 0x8
	.byte	0x86
	.uleb128 0x7
	.byte	0x87
	.uleb128 0x6
	.byte	0x88
	.uleb128 0x5
	.byte	0x89
	.uleb128 0x4
	.byte	0x8a
	.uleb128 0x3
	.byte	0x8b
	.uleb128 0x2
	.byte	0x8e
	.uleb128 0x1
	.byte	0x4
	.4byte	.LCFI98-.LCFI97
	.byte	0xe
	.uleb128 0x58
	.byte	0x4
	.4byte	.LCFI99-.LCFI98
	.byte	0xa
	.byte	0xe
	.uleb128 0x24
	.byte	0x4
	.4byte	.LCFI100-.LCFI99
	.byte	0xb
	.align	2
.LEFDE96:
	.text
.Letext0:
	.file 2 "E:\\dev\\nRF5_SDK_153\\nRF5_SDK_15.3.0_59ac345\\external\\fatfs\\src\\integer.h"
	.file 3 "E:\\dev\\nRF5_SDK_153\\nRF5_SDK_15.3.0_59ac345\\external\\fatfs\\src\\ff.h"
	.file 4 "E:\\dev\\nRF5_SDK_153\\nRF5_SDK_15.3.0_59ac345\\external\\fatfs\\src\\diskio.h"